 Fuel_Pump_V3_1_20201113_20KHz_sfun

 Timestamp is 5fb33678 (Tue Nov 17 10:33:28 2020)

 Preferred load address is 0000000180000000

 Start         Length     Name                   Class
 0001:00000000 000181d0H .text$mn                CODE
 0001:000181d0 00000012H .text$mn$00             CODE
 0001:000181e2 00000092H .text$x                 CODE
 0002:00000000 000004d0H .idata$5                DATA
 0002:000004d0 00000010H .00cfg                  DATA
 0002:000004e0 00000008H .CRT$XCA                DATA
 0002:000004e8 00000008H .CRT$XCZ                DATA
 0002:000004f0 00000008H .CRT$XIA                DATA
 0002:000004f8 00000008H .CRT$XIZ                DATA
 0002:00000500 00000008H .CRT$XPA                DATA
 0002:00000508 00000008H .CRT$XPZ                DATA
 0002:00000510 00000008H .CRT$XTA                DATA
 0002:00000518 00000008H .CRT$XTZ                DATA
 0002:00000520 00000000H .gfids$y                DATA
 0002:00000520 00000718H .rdata                  DATA
 0002:00000c38 00000218H .rdata$zzzdbg           DATA
 0002:00000e50 00000008H .rtc$IAA                DATA
 0002:00000e58 00000008H .rtc$IZZ                DATA
 0002:00000e60 00000008H .rtc$TAA                DATA
 0002:00000e68 00000008H .rtc$TZZ                DATA
 0002:00000e70 000009d0H .xdata                  DATA
 0002:00001840 0000008cH .edata                  DATA
 0002:000018cc 00000104H .idata$2                DATA
 0002:000019d0 00000018H .idata$3                DATA
 0002:000019e8 000004d0H .idata$4                DATA
 0002:00001eb8 00000ef6H .idata$6                DATA
 0003:00000000 00003470H .data                   DATA
 0003:00003470 00000e00H .bss                    DATA
 0004:00000000 00000b94H .pdata                  DATA

  Address         Publics by Value              Rva+Base               Lib:Object

 0000:00000000       __enclave_config           0000000000000000     <absolute>
 0000:00000000       ___safe_se_handler_table   0000000000000000     <absolute>
 0000:00000000       __guard_iat_table          0000000000000000     <absolute>
 0000:00000000       __dynamic_value_reloc_table 0000000000000000     <absolute>
 0000:00000000       __AbsoluteZero             0000000000000000     <absolute>
 0000:00000000       ___safe_se_handler_count   0000000000000000     <absolute>
 0000:00000000       __hybrid_code_map_count    0000000000000000     <absolute>
 0000:00000000       __guard_longjmp_count      0000000000000000     <absolute>
 0000:00000000       __hybrid_code_map          0000000000000000     <absolute>
 0000:00000000       __guard_iat_count          0000000000000000     <absolute>
 0000:00000000       __hybrid_auxiliary_iat     0000000000000000     <absolute>
 0000:00000000       __guard_fids_count         0000000000000000     <absolute>
 0000:00000000       __guard_fids_table         0000000000000000     <absolute>
 0000:00000000       __volatile_metadata        0000000000000000     <absolute>
 0000:00000000       __guard_longjmp_table      0000000000000000     <absolute>
 0000:00000100       __guard_flags              0000000000000100     <absolute>
 0000:00000000       __ImageBase                0000000180000000     <linker-defined>
 0001:00000000       Fuel_Pump_V3_1_20201113_20KHz_initializer 0000000180001000 f   Fuel_Pump_V3_1_20201113_20KHz_sfun.obj
 0001:00000010       Fuel_Pump_V3_1_20201113_20KHz_terminator 0000000180001010 f   Fuel_Pump_V3_1_20201113_20KHz_sfun.obj
 0001:00000020       load_Fuel_Pump_V3_1_20201113_20KHz_optimization_info 0000000180001020 f   Fuel_Pump_V3_1_20201113_20KHz_sfun.obj
 0001:000000d0       unload_Fuel_Pump_V3_1_20201113_20KHz_optimization_info 00000001800010d0 f   Fuel_Pump_V3_1_20201113_20KHz_sfun.obj
 0001:00000100       sf_Fuel_Pump_V3_1_20201113_20KHz_method_dispatcher 0000000180001100 f   Fuel_Pump_V3_1_20201113_20KHz_sfun.obj
 0001:00000120       sf_Fuel_Pump_V3_1_20201113_20KHz_process_check_sum_call 0000000180001120 f   Fuel_Pump_V3_1_20201113_20KHz_sfun.obj
 0001:00000600       sf_Fuel_Pump_V3_1_20201113_20KHz_get_eml_resolved_functions_info 0000000180001600 f   Fuel_Pump_V3_1_20201113_20KHz_sfun.obj
 0001:00000790       sf_Fuel_Pump_V3_1_20201113_20KHz_third_party_uses_info 0000000180001790 f   Fuel_Pump_V3_1_20201113_20KHz_sfun.obj
 0001:00000920       sf_Fuel_Pump_V3_1_20201113_20KHz_jit_fallback_info 0000000180001920 f   Fuel_Pump_V3_1_20201113_20KHz_sfun.obj
 0001:00000ab0       sf_Fuel_Pump_V3_1_20201113_20KHz_get_post_codegen_info 0000000180001ab0 f   Fuel_Pump_V3_1_20201113_20KHz_sfun.obj
 0001:00000c40       sf_Fuel_Pump_V3_1_20201113_20KHz_updateBuildInfo_args_info 0000000180001c40 f   Fuel_Pump_V3_1_20201113_20KHz_sfun.obj
 0001:00000dd0       Fuel_Pump_V3_1_20201113_20KHz_register_exported_symbols 0000000180001dd0 f   Fuel_Pump_V3_1_20201113_20KHz_sfun.obj
 0001:00000de0       mexFunction                0000000180001de0 f   Fuel_Pump_V3_1_20201113_20KHz_sfun_registry.obj
 0001:00003380       _ssSetInputPortDirectFeedThroughFcn 0000000180004380 f   Fuel_Pump_V3_1_20201113_20KHz_sfun_registry.obj
 0001:000034f0       _ssSetRWorkValueFcn        00000001800044f0 f   Fuel_Pump_V3_1_20201113_20KHz_sfun_registry.obj
 0001:00003570       _ssGetRWorkValueFcn        0000000180004570 f   Fuel_Pump_V3_1_20201113_20KHz_sfun_registry.obj
 0001:000035e0       _ssSetIWorkValueFcn        00000001800045e0 f   Fuel_Pump_V3_1_20201113_20KHz_sfun_registry.obj
 0001:00003660       _ssGetIWorkValueFcn        0000000180004660 f   Fuel_Pump_V3_1_20201113_20KHz_sfun_registry.obj
 0001:000036d0       _ssSetPWorkValueFcn        00000001800046d0 f   Fuel_Pump_V3_1_20201113_20KHz_sfun_registry.obj
 0001:00003750       _ssGetPWorkValueFcn        0000000180004750 f   Fuel_Pump_V3_1_20201113_20KHz_sfun_registry.obj
 0001:000037c0       _ssGetInputPortSignalFcn   00000001800047c0 f   Fuel_Pump_V3_1_20201113_20KHz_sfun_registry.obj
 0001:00003b50       _ssGetInputPortBufferDstPortFcn 0000000180004b50 f   Fuel_Pump_V3_1_20201113_20KHz_sfun_registry.obj
 0001:00003bd0       _ssGetInputPortSignalPtrsFcn 0000000180004bd0 f   Fuel_Pump_V3_1_20201113_20KHz_sfun_registry.obj
 0001:00003f60       ssGetParameterTuningCompliance 0000000180004f60 f   Fuel_Pump_V3_1_20201113_20KHz_sfun_registry.obj
 0001:00003fd0       ssGetDTypeIdFromMxArray    0000000180004fd0 f   Fuel_Pump_V3_1_20201113_20KHz_sfun_registry.obj
 0001:000040f0       ssWriteRTWMx2dMatParam     00000001800050f0 f   Fuel_Pump_V3_1_20201113_20KHz_sfun_registry.obj
 0001:00004180       ssWriteRTWMxVectParam      0000000180005180 f   Fuel_Pump_V3_1_20201113_20KHz_sfun_registry.obj
 0001:00004200       ssWriteRTWParameters       0000000180005200 f   Fuel_Pump_V3_1_20201113_20KHz_sfun_registry.obj
 0001:000047c0       ssWriteRTWParamSettings    00000001800057c0 f   Fuel_Pump_V3_1_20201113_20KHz_sfun_registry.obj
 0001:00004eb0       ssWriteRTWStr              0000000180005eb0 f   Fuel_Pump_V3_1_20201113_20KHz_sfun_registry.obj
 0001:00004f10       ssWriteRTWWorkVect         0000000180005f10 f   Fuel_Pump_V3_1_20201113_20KHz_sfun_registry.obj
 0001:00005470       ssWarning                  0000000180006470 f   Fuel_Pump_V3_1_20201113_20KHz_sfun_registry.obj
 0001:00005560       ssWriteRTWNameValuePair    0000000180006560 f   Fuel_Pump_V3_1_20201113_20KHz_sfun_registry.obj
 0001:00005a60       _ssSetInputPortMatrixDimensions 0000000180006a60 f   Fuel_Pump_V3_1_20201113_20KHz_sfun_registry.obj
 0001:00005b80       _ssSetOutputPortMatrixDimensions 0000000180006b80 f   Fuel_Pump_V3_1_20201113_20KHz_sfun_registry.obj
 0001:00005ca0       _ssSetInputPortVectorDimension 0000000180006ca0 f   Fuel_Pump_V3_1_20201113_20KHz_sfun_registry.obj
 0001:00005d50       _ssSetOutputPortVectorDimension 0000000180006d50 f   Fuel_Pump_V3_1_20201113_20KHz_sfun_registry.obj
 0001:00005e00       ssIsRunTimeParamTunable    0000000180006e00 f   Fuel_Pump_V3_1_20201113_20KHz_sfun_registry.obj
 0001:00005e70       ssGetSFuncBlockHandle      0000000180006e70 f   Fuel_Pump_V3_1_20201113_20KHz_sfun_registry.obj
 0001:00005ee0       _ssGetCurrentInputPortWidth 0000000180006ee0 f   Fuel_Pump_V3_1_20201113_20KHz_sfun_registry.obj
 0001:00006000       _ssGetCurrentOutputPortWidth 0000000180007000 f   Fuel_Pump_V3_1_20201113_20KHz_sfun_registry.obj
 0001:00006120       _ssGetCallSystemNumFcnCallDestinations 0000000180007120 f   Fuel_Pump_V3_1_20201113_20KHz_sfun_registry.obj
 0001:00006190       ssGetIsZeroCrossControlDisabled 0000000180007190 f   Fuel_Pump_V3_1_20201113_20KHz_sfun_registry.obj
 0001:00006200       ssSetIsInputPortUsedForContZcSignal 0000000180007200 f   Fuel_Pump_V3_1_20201113_20KHz_sfun_registry.obj
 0001:00006270       ssSetZcSignalIsZcElementDisc 0000000180007270 f   Fuel_Pump_V3_1_20201113_20KHz_sfun_registry.obj
 0001:00006320       ssSetZcSignalName          0000000180007320 f   Fuel_Pump_V3_1_20201113_20KHz_sfun_registry.obj
 0001:00006390       ssSetZcSignalWidth         0000000180007390 f   Fuel_Pump_V3_1_20201113_20KHz_sfun_registry.obj
 0001:00006400       ssSetZcSignalZcEventType   0000000180007400 f   Fuel_Pump_V3_1_20201113_20KHz_sfun_registry.obj
 0001:00006470       ssSetZcSignalType          0000000180007470 f   Fuel_Pump_V3_1_20201113_20KHz_sfun_registry.obj
 0001:000064e0       ssSetZcSignalZcTol         00000001800074e0 f   Fuel_Pump_V3_1_20201113_20KHz_sfun_registry.obj
 0001:00006550       ssSetZcSignalNeedsEventNotification 0000000180007550 f   Fuel_Pump_V3_1_20201113_20KHz_sfun_registry.obj
 0001:000065c0       ssCreateAndAddZcSignalInfo 00000001800075c0 f   Fuel_Pump_V3_1_20201113_20KHz_sfun_registry.obj
 0001:00006630       ssCloneAndAddZcSignalInfo  0000000180007630 f   Fuel_Pump_V3_1_20201113_20KHz_sfun_registry.obj
 0001:000066a0       ssGetNumZcSignals          00000001800076a0 f   Fuel_Pump_V3_1_20201113_20KHz_sfun_registry.obj
 0001:00006710       ssGetZcSignalVector        0000000180007710 f   Fuel_Pump_V3_1_20201113_20KHz_sfun_registry.obj
 0001:00006780       ssGetZcSignalName          0000000180007780 f   Fuel_Pump_V3_1_20201113_20KHz_sfun_registry.obj
 0001:000067f0       ssGetZcSignalWidth         00000001800077f0 f   Fuel_Pump_V3_1_20201113_20KHz_sfun_registry.obj
 0001:00006860       ssGetZcSignalZcEventType   0000000180007860 f   Fuel_Pump_V3_1_20201113_20KHz_sfun_registry.obj
 0001:000068d0       ssGetZcSignalZcEvents      00000001800078d0 f   Fuel_Pump_V3_1_20201113_20KHz_sfun_registry.obj
 0001:00006940       ssGetZcSignalType          0000000180007940 f   Fuel_Pump_V3_1_20201113_20KHz_sfun_registry.obj
 0001:000069b0       ssGetZcSignalZcTol         00000001800079b0 f   Fuel_Pump_V3_1_20201113_20KHz_sfun_registry.obj
 0001:00006a30       ssGetZcSignalNeedsEventNotification 0000000180007a30 f   Fuel_Pump_V3_1_20201113_20KHz_sfun_registry.obj
 0001:00006aa0       ssGetZcSignalIsZcElementDisc 0000000180007aa0 f   Fuel_Pump_V3_1_20201113_20KHz_sfun_registry.obj
 0001:00006b40       ssGetIsInputPortElementContinuous 0000000180007b40 f   Fuel_Pump_V3_1_20201113_20KHz_sfun_registry.obj
 0001:00006be0       _ssGetAbsTol               0000000180007be0 f   Fuel_Pump_V3_1_20201113_20KHz_sfun_registry.obj
 0001:00006c50       _ssSetStateAbsTol          0000000180007c50 f   Fuel_Pump_V3_1_20201113_20KHz_sfun_registry.obj
 0001:00006d30       _ssSetInputPortReusableFcn 0000000180007d30 f   Fuel_Pump_V3_1_20201113_20KHz_sfun_registry.obj
 0001:00006e30       _ssSetOutputPortReusableFcn 0000000180007e30 f   Fuel_Pump_V3_1_20201113_20KHz_sfun_registry.obj
 0001:00006f30       _ssSetSymbolicDimsSupport  0000000180007f30 f   Fuel_Pump_V3_1_20201113_20KHz_sfun_registry.obj
 0001:00006fa0       _ssRegisterSymbolicDimsExpr 0000000180007fa0 f   Fuel_Pump_V3_1_20201113_20KHz_sfun_registry.obj
 0001:00007020       _ssRegisterSymbolicDims    0000000180008020 f   Fuel_Pump_V3_1_20201113_20KHz_sfun_registry.obj
 0001:000070c0       _ssRegisterSymbolicDimsString 00000001800080c0 f   Fuel_Pump_V3_1_20201113_20KHz_sfun_registry.obj
 0001:00007140       _ssRegisterSymbolicDimsIntValue 0000000180008140 f   Fuel_Pump_V3_1_20201113_20KHz_sfun_registry.obj
 0001:000071b0       _ssRegisterSymbolicDimsPlus 00000001800081b0 f   Fuel_Pump_V3_1_20201113_20KHz_sfun_registry.obj
 0001:00007230       _ssRegisterSymbolicDimsMinus 0000000180008230 f   Fuel_Pump_V3_1_20201113_20KHz_sfun_registry.obj
 0001:000072b0       _ssRegisterSymbolicDimsMultiply 00000001800082b0 f   Fuel_Pump_V3_1_20201113_20KHz_sfun_registry.obj
 0001:00007330       _ssRegisterSymbolicDimsDivide 0000000180008330 f   Fuel_Pump_V3_1_20201113_20KHz_sfun_registry.obj
 0001:000073b0       _ssGetNumSymbolicDims      00000001800083b0 f   Fuel_Pump_V3_1_20201113_20KHz_sfun_registry.obj
 0001:00007420       _ssGetSymbolicDim          0000000180008420 f   Fuel_Pump_V3_1_20201113_20KHz_sfun_registry.obj
 0001:000074a0       _ssSetInputPortSymbolicDimsId 00000001800084a0 f   Fuel_Pump_V3_1_20201113_20KHz_sfun_registry.obj
 0001:00007510       _ssGetCompInputPortSymbolicDimsId 0000000180008510 f   Fuel_Pump_V3_1_20201113_20KHz_sfun_registry.obj
 0001:00007580       _ssSetCompInputPortSymbolicDimsId 0000000180008580 f   Fuel_Pump_V3_1_20201113_20KHz_sfun_registry.obj
 0001:000075f0       _ssSetOutputPortSymbolicDimsId 00000001800085f0 f   Fuel_Pump_V3_1_20201113_20KHz_sfun_registry.obj
 0001:00007660       _ssGetCompOutputPortSymbolicDimsId 0000000180008660 f   Fuel_Pump_V3_1_20201113_20KHz_sfun_registry.obj
 0001:000076d0       _ssSetCompOutputPortSymbolicDimsId 00000001800086d0 f   Fuel_Pump_V3_1_20201113_20KHz_sfun_registry.obj
 0001:00007740       _ssSetCompDWorkSymbolicDimsId 0000000180008740 f   Fuel_Pump_V3_1_20201113_20KHz_sfun_registry.obj
 0001:000077b0       sf_process_check_sum_call  00000001800087b0 f   Fuel_Pump_V3_1_20201113_20KHz_sfun_registry.obj
 0001:00007820       sf_process_get_third_party_uses_info_call 0000000180008820 f   Fuel_Pump_V3_1_20201113_20KHz_sfun_registry.obj
 0001:00007b10       sf_process_get_jit_fallback_info_call 0000000180008b10 f   Fuel_Pump_V3_1_20201113_20KHz_sfun_registry.obj
 0001:00007e00       sf_process_get_post_codegen_info_call 0000000180008e00 f   Fuel_Pump_V3_1_20201113_20KHz_sfun_registry.obj
 0001:000080f0       sf_process_get_updateBuildInfo_args_info_call 00000001800090f0 f   Fuel_Pump_V3_1_20201113_20KHz_sfun_registry.obj
 0001:000083e0       sf_process_get_eml_resolved_functions_info_call 00000001800093e0 f   Fuel_Pump_V3_1_20201113_20KHz_sfun_registry.obj
 0001:000086d0       sf_mex_unlock_call         00000001800096d0 f   Fuel_Pump_V3_1_20201113_20KHz_sfun_registry.obj
 0001:000088f0       sf_machine_global_initializer_called 00000001800098f0 f   Fuel_Pump_V3_1_20201113_20KHz_sfun_registry.obj
 0001:00008920       sf_machine_global_method_dispatcher 0000000180009920 f   Fuel_Pump_V3_1_20201113_20KHz_sfun_registry.obj
 0001:000089c0       sf_machine_global_terminator 00000001800099c0 f   Fuel_Pump_V3_1_20201113_20KHz_sfun_registry.obj
 0001:00008a00       sf_register_machine_exported_symbols 0000000180009a00 f   Fuel_Pump_V3_1_20201113_20KHz_sfun_registry.obj
 0001:00008a30       callCustomFcn              0000000180009a30 f   Fuel_Pump_V3_1_20201113_20KHz_sfun_registry.obj
 0001:00008a40       sf_machine_global_initializer 0000000180009a40 f   Fuel_Pump_V3_1_20201113_20KHz_sfun_registry.obj
 0001:00008ac0       mdlGetSimState             0000000180009ac0 f   Fuel_Pump_V3_1_20201113_20KHz_sfun_registry.obj
 0001:00008b00       mdlSetSimState             0000000180009b00 f   Fuel_Pump_V3_1_20201113_20KHz_sfun_registry.obj
 0001:00009370       ProcessMexSfunctionEveryCall 000000018000a370 f   Fuel_Pump_V3_1_20201113_20KHz_sfun_registry.obj
 0001:0000a480       __local_stdio_printf_options 000000018000b480 f i Fuel_Pump_V3_1_20201113_20KHz_sfun_registry.obj
 0001:0000a490       _vsnprintf_l               000000018000b490 f i Fuel_Pump_V3_1_20201113_20KHz_sfun_registry.obj
 0001:0000a510       _vsprintf_l                000000018000b510 f i Fuel_Pump_V3_1_20201113_20KHz_sfun_registry.obj
 0001:0000a560       sprintf                    000000018000b560 f i Fuel_Pump_V3_1_20201113_20KHz_sfun_registry.obj
 0001:0000a5b0       mexfilerequiredapiversion  000000018000b5b0 f   c_mexapi_version.obj
 0001:0000a5e0       canblocks_extras_initializer 000000018000b5e0 f   canblocks_extras_sfun:canblocks_extras_sfun.obj
 0001:0000a5f0       canblocks_extras_terminator 000000018000b5f0 f   canblocks_extras_sfun:canblocks_extras_sfun.obj
 0001:0000a600       load_canblocks_extras_optimization_info 000000018000b600 f   canblocks_extras_sfun:canblocks_extras_sfun.obj
 0001:0000a6b0       unload_canblocks_extras_optimization_info 000000018000b6b0 f   canblocks_extras_sfun:canblocks_extras_sfun.obj
 0001:0000a6e0       sf_canblocks_extras_method_dispatcher 000000018000b6e0 f   canblocks_extras_sfun:canblocks_extras_sfun.obj
 0001:0000a730       sf_canblocks_extras_process_check_sum_call 000000018000b730 f   canblocks_extras_sfun:canblocks_extras_sfun.obj
 0001:0000ab30       sf_canblocks_extras_get_eml_resolved_functions_info 000000018000bb30 f   canblocks_extras_sfun:canblocks_extras_sfun.obj
 0001:0000ad10       sf_canblocks_extras_third_party_uses_info 000000018000bd10 f   canblocks_extras_sfun:canblocks_extras_sfun.obj
 0001:0000aee0       sf_canblocks_extras_jit_fallback_info 000000018000bee0 f   canblocks_extras_sfun:canblocks_extras_sfun.obj
 0001:0000b0b0       sf_canblocks_extras_get_post_codegen_info 000000018000c0b0 f   canblocks_extras_sfun:canblocks_extras_sfun.obj
 0001:0000b290       sf_canblocks_extras_updateBuildInfo_args_info 000000018000c290 f   canblocks_extras_sfun:canblocks_extras_sfun.obj
 0001:0000b460       canblocks_extras_register_exported_symbols 000000018000c460 f   canblocks_extras_sfun:canblocks_extras_sfun.obj
 0001:0000b470       sf_c28_canblocks_extras_get_eml_resolved_functions_info 000000018000c470 f   canblocks_extras_sfun:c28_canblocks_extras.obj
 0001:0000b4f0       sf_c28_canblocks_extras_get_check_sum 000000018000c4f0 f   canblocks_extras_sfun:c28_canblocks_extras.obj
 0001:0000b5c0       c28_canblocks_extras_method_dispatcher 000000018000c5c0 f   canblocks_extras_sfun:c28_canblocks_extras.obj
 0001:00016170       sf_c28_canblocks_extras_third_party_uses_info 0000000180017170 f   canblocks_extras_sfun:c28_canblocks_extras.obj
 0001:000161a0       sf_c28_canblocks_extras_jit_fallback_info 00000001800171a0 f   canblocks_extras_sfun:c28_canblocks_extras.obj
 0001:00016330       sf_c28_canblocks_extras_updateBuildInfo_args_info 0000000180017330 f   canblocks_extras_sfun:c28_canblocks_extras.obj
 0001:00016690       sf_c28_canblocks_extras_get_post_codegen_info 0000000180017690 f   canblocks_extras_sfun:c28_canblocks_extras.obj
 0001:00016bed       sf_load_rtw_optimization_info 0000000180017bed f   sf_runtime:sf_runtime.dll
 0001:00016bf3       sf_get_ChartInfoStruct_CodeGen 0000000180017bf3 f   sf_runtime:sf_runtime.dll
 0001:00016bf9       sf_get_hasSeparateUpdateOutputs 0000000180017bf9 f   sf_runtime:sf_runtime.dll
 0001:00016bff       callMdlMethodAndReportError 0000000180017bff f   sf_runtime:sf_runtime.dll
 0001:00016c05       sim_mode_is_rtw_gen        0000000180017c05 f   sf_runtime:sf_runtime.dll
 0001:00016c0b       call_sf_machine_global_method_dispatcher 0000000180017c0b f   sf_runtime:sf_runtime.dll
 0001:00016c11       getRuntimeInstanceInfoAsVoid 0000000180017c11 f   sf_runtime:sf_runtime.dll
 0001:00016c17       sf_mex_error_direct_call   0000000180017c17 f   sf_runtime:sf_runtime.dll
 0001:00016c1d       sf_clear_error_manager_info 0000000180017c1d f   sf_runtime:sf_runtime.dll
 0001:00016c23       sf_mex_decode              0000000180017c23 f   sf_runtime:sf_runtime.dll
 0001:00016c29       sf_init_ChartRunTimeInfo   0000000180017c29 f   sf_runtime:sf_runtime.dll
 0001:00016c2f       sf_free_ChartRunTimeInfo   0000000180017c2f f   sf_runtime:sf_runtime.dll
 0001:00016c35       sfrtGetEmlrtCtx            0000000180017c35 f   sf_runtime:sf_runtime.dll
 0001:00016c3b       sfrtGetCovrtInstance       0000000180017c3b f   sf_runtime:sf_runtime.dll
 0001:00016c41       sf_get_chart_instance_ptr  0000000180017c41 f   sf_runtime:sf_runtime.dll
 0001:00016c47       sim_mode_is_external       0000000180017c47 f   sf_runtime:sf_runtime.dll
 0001:00016c4d       sf_mex_get_sfun_param      0000000180017c4d f   sf_runtime:sf_runtime.dll
 0001:00016c53       sf_clear_rtw_identifier    0000000180017c53 f   sf_runtime:sf_runtime.dll
 0001:00016c59       sf_get_time                0000000180017c59 f   sf_runtime:sf_runtime.dll
 0001:00016c5f       sf_force_animation_for_chart_exec_at_init 0000000180017c5f f   sf_runtime:sf_runtime.dll
 0001:00016c65       sfDoAnimationWrapper       0000000180017c65 f   sf_runtime:sf_runtime.dll
 0001:00016c6b       setDataBrowseFcn           0000000180017c6b f   sf_runtime:sf_runtime.dll
 0001:00016c71       setLegacyDebuggerFlag      0000000180017c71 f   sf_runtime:sf_runtime.dll
 0001:00016c77       setDebuggerFlag            0000000180017c77 f   sf_runtime:sf_runtime.dll
 0001:00016c7d       sf_warn_if_symbolic_dimension_param_changed 0000000180017c7d f   sf_runtime:sf_runtime.dll
 0001:00016c83       sf_set_work_widths         0000000180017c83 f   sf_runtime:sf_runtime.dll
 0001:00016c89       sfListenerCacheSimStruct   0000000180017c89 f   sf_runtime:sf_runtime.dll
 0001:00016c8f       sfListenerLightTerminate   0000000180017c8f f   sf_runtime:sf_runtime.dll
 0001:00016c95       sf_mex_error_message       0000000180017c95 f   sf_runtime:sf_runtime.dll
 0001:00016c9b       sf_mex_create              0000000180017c9b f   sf_runtime:sf_runtime.dll
 0001:00016ca1       sf_mex_createcellmatrix    0000000180017ca1 f   sf_runtime:sf_runtime.dll
 0001:00016ca7       sf_mex_setcell             0000000180017ca7 f   sf_runtime:sf_runtime.dll
 0001:00016cad       sf_mex_getcell             0000000180017cad f   sf_runtime:sf_runtime.dll
 0001:00016cb3       sf_mex_assign              0000000180017cb3 f   sf_runtime:sf_runtime.dll
 0001:00016cb9       sf_mex_dup                 0000000180017cb9 f   sf_runtime:sf_runtime.dll
 0001:00016cbf       sf_mex_destroy             0000000180017cbf f   sf_runtime:sf_runtime.dll
 0001:00016cc5       sf_mex_import              0000000180017cc5 f   sf_runtime:sf_runtime.dll
 0001:00016ccb       sf_mex_import_named        0000000180017ccb f   sf_runtime:sf_runtime.dll
 0001:00016cd1       sf_mex_duplicatearraysafe  0000000180017cd1 f   sf_runtime:sf_runtime.dll
 0001:00016cd7       ssGetInputPortSignal_wrapper 0000000180017cd7 f   sf_runtime:sf_runtime.dll
 0001:00016cdd       sf_data_overflow_error     0000000180017cdd f   sf_runtime:sf_runtime.dll
 0001:00016ce3       mxIsChar_800               0000000180017ce3 f   libmx:libmx.dll
 0001:00016ce9       mxGetScalar_800            0000000180017ce9 f   libmx:libmx.dll
 0001:00016cef       mxGetPr_800                0000000180017cef f   libmx:libmx.dll
 0001:00016cf5       mxDestroyArray_800         0000000180017cf5 f   libmx:libmx.dll
 0001:00016cfb       mxCreateDoubleMatrix_800   0000000180017cfb f   libmx:libmx.dll
 0001:00016d01       mxGetString_800            0000000180017d01 f   libmx:libmx.dll
 0001:00016d07       mxCalloc_800               0000000180017d07 f   libmx:libmx.dll
 0001:00016d0d       mxGetM_800                 0000000180017d0d f   libmx:libmx.dll
 0001:00016d13       mxGetClassID_800           0000000180017d13 f   libmx:libmx.dll
 0001:00016d19       mxIsNumeric_800            0000000180017d19 f   libmx:libmx.dll
 0001:00016d1f       mxIsComplex_800            0000000180017d1f f   libmx:libmx.dll
 0001:00016d25       mxGetN_800                 0000000180017d25 f   libmx:libmx.dll
 0001:00016d2b       mxCreateDoubleScalar_800   0000000180017d2b f   libmx:libmx.dll
 0001:00016d31       mxCreateString_800         0000000180017d31 f   libmx:libmx.dll
 0001:00016d37       mxDuplicateArray_800       0000000180017d37 f   libmx:libmx.dll
 0001:00016d3d       mxSetField_800             0000000180017d3d f   libmx:libmx.dll
 0001:00016d43       mxCreateCellMatrix_800     0000000180017d43 f   libmx:libmx.dll
 0001:00016d49       mxCreateStructMatrix_800   0000000180017d49 f   libmx:libmx.dll
 0001:00016d4f       mexMakeArrayPersistent_800 0000000180017d4f f   libmex:libmex.dll
 0001:00016d55       mexErrMsgTxt_800           0000000180017d55 f   libmex:libmex.dll
 0001:00016d5b       mexWarnMsgTxt_800          0000000180017d5b f   libmex:libmex.dll
 0001:00016d61       mexCallMATLAB_800          0000000180017d61 f   libmex:libmex.dll
 0001:00016d67       mexLock_800                0000000180017d67 f   libmex:libmex.dll
 0001:00016d6d       mexUnlock_800              0000000180017d6d f   libmex:libmex.dll
 0001:00016d73       mexIsLocked_800            0000000180017d73 f   libmex:libmex.dll
 0001:00016d79       utMalloc                   0000000180017d79 f   libut:libut.dll
 0001:00016d7f       utFree                     0000000180017d7f f   libut:libut.dll
 0001:00016d85       slcovUploadCoverageSynthesisBySimstruct 0000000180017d85 f   libmwsl_sfcn_cov_bridge:libmwsl_sfcn_cov_bridge.dll
 0001:00016d8b       covrtCreateStateflowInstanceData 0000000180017d8b f   libcovrt:libcovrt.dll
 0001:00016d91       covrtDeleteStateflowInstanceData 0000000180017d91 f   libcovrt:libcovrt.dll
 0001:00016d97       covrtRelationalopInitFcn   0000000180017d97 f   libcovrt:libcovrt.dll
 0001:00016d9d       covrtTransInitFcn          0000000180017d9d f   libcovrt:libcovrt.dll
 0001:00016da3       covrtStateInitFcn          0000000180017da3 f   libcovrt:libcovrt.dll
 0001:00016da9       covrtChartInitFcn          0000000180017da9 f   libcovrt:libcovrt.dll
 0001:00016daf       covrtRelationalopUpdateFcn 0000000180017daf f   libcovrt:libcovrt.dll
 0001:00016db5       covrtDecUpdateFcn          0000000180017db5 f   libcovrt:libcovrt.dll
 0001:00016dbb       covrtTransitionDecUpdateFcn 0000000180017dbb f   libcovrt:libcovrt.dll
 0001:00016dc1       covrtCondUpdateFcn         0000000180017dc1 f   libcovrt:libcovrt.dll
 0001:00016dc7       covrtSigUpdateFcn          0000000180017dc7 f   libcovrt:libcovrt.dll
 0001:00016dd0       __raise_securityfailure    0000000180017dd0 f   MSVCRT:gs_report.obj
 0001:00016e04       __report_gsfailure         0000000180017e04 f   MSVCRT:gs_report.obj
 0001:00016ed8       __report_rangecheckfailure 0000000180017ed8 f   MSVCRT:gs_report.obj
 0001:00016eec       __report_securityfailure   0000000180017eec f   MSVCRT:gs_report.obj
 0001:00016f88       __report_securityfailureEx 0000000180017f88 f   MSVCRT:gs_report.obj
 0001:0001717c       __GSHandlerCheck           000000018001817c f   MSVCRT:gshandler.obj
 0001:0001719c       __GSHandlerCheckCommon     000000018001819c f   MSVCRT:gshandler.obj
 0001:00017210       __security_check_cookie    0000000180018210 f   MSVCRT:amdsecgs.obj
 0001:00017570       _CRT_INIT                  0000000180018570 f   MSVCRT:dll_dllmain.obj
 0001:00017578       _DllMainCRTStartup         0000000180018578 f   MSVCRT:dll_dllmain.obj
 0001:00017624       __security_init_cookie     0000000180018624 f   MSVCRT:gs_support.obj
 0001:000176d0       DllMain                    00000001800186d0 f   MSVCRT:dll_dllmain_stub.obj
 0001:000176f4       ?__scrt_initialize_type_info@@YAXXZ 00000001800186f4 f   MSVCRT:tncleanup.obj
 0001:00017704       ?__scrt_uninitialize_type_info@@YAXXZ 0000000180018704 f   MSVCRT:tncleanup.obj
 0001:00017710       __local_stdio_scanf_options 0000000180018710 f i MSVCRT:default_local_stdio_options.obj
 0001:00017718       __scrt_initialize_default_local_stdio_options 0000000180018718 f   MSVCRT:default_local_stdio_options.obj
 0001:00017734       ?configure_argv@__scrt_narrow_argv_policy@@SAHXZ 0000000180018734 f i MSVCRT:utility.obj
 0001:00017794       ?initialize_environment@__scrt_narrow_environment_policy@@SAHXZ 0000000180018794 f i MSVCRT:utility.obj
 0001:000177cc       NtCurrentTeb               00000001800187cc f i MSVCRT:utility.obj
 0001:000177d8       __scrt_acquire_startup_lock 00000001800187d8 f   MSVCRT:utility.obj
 0001:00017814       __scrt_dllmain_after_initialize_c 0000000180018814 f   MSVCRT:utility.obj
 0001:00017848       __scrt_dllmain_before_initialize_c 0000000180018848 f   MSVCRT:utility.obj
 0001:00017860       __scrt_dllmain_crt_thread_attach 0000000180018860 f   MSVCRT:utility.obj
 0001:00017888       __scrt_dllmain_crt_thread_detach 0000000180018888 f   MSVCRT:utility.obj
 0001:000178a0       __scrt_dllmain_exception_filter 00000001800188a0 f   MSVCRT:utility.obj
 0001:00017900       __scrt_dllmain_uninitialize_c 0000000180018900 f   MSVCRT:utility.obj
 0001:00017930       __scrt_dllmain_uninitialize_critical 0000000180018930 f   MSVCRT:utility.obj
 0001:00017944       __scrt_initialize_crt      0000000180018944 f   MSVCRT:utility.obj
 0001:00017990       __scrt_initialize_onexit_tables 0000000180018990 f   MSVCRT:utility.obj
 0001:00017a1c       __scrt_is_nonwritable_in_current_image 0000000180018a1c f   MSVCRT:utility.obj
 0001:00017ab4       __scrt_release_startup_lock 0000000180018ab4 f   MSVCRT:utility.obj
 0001:00017ad8       __scrt_uninitialize_crt    0000000180018ad8 f   MSVCRT:utility.obj
 0001:00017b04       _onexit                    0000000180018b04 f   MSVCRT:utility.obj
 0001:00017b40       at_quick_exit              0000000180018b40 f   MSVCRT:utility.obj
 0001:00017b60       atexit                     0000000180018b60 f   MSVCRT:utility.obj
 0001:00017b78       __scrt_get_dyn_tls_init_callback 0000000180018b78 f   MSVCRT:dyn_tls_init.obj
 0001:00017b80       __crt_debugger_hook        0000000180018b80 f   MSVCRT:utility_desktop.obj
 0001:00017b88       __scrt_fastfail            0000000180018b88 f   MSVCRT:utility_desktop.obj
 0001:00017cd4       __scrt_get_show_window_mode 0000000180018cd4 f   MSVCRT:utility_desktop.obj
 0001:00017d10       __scrt_initialize_mta      0000000180018d10 f   MSVCRT:utility_desktop.obj
 0001:00017d18       __scrt_initialize_winrt    0000000180018d18 f   MSVCRT:utility_desktop.obj
 0001:00017d1c       __scrt_is_managed_app      0000000180018d1c f   MSVCRT:utility_desktop.obj
 0001:00017d70       __scrt_set_unhandled_exception_filter 0000000180018d70 f   MSVCRT:utility_desktop.obj
 0001:00017d80       __scrt_stub_for_initialize_mta 0000000180018d80 f   MSVCRT:utility_desktop.obj
 0001:00017d80       __scrt_exe_initialize_mta  0000000180018d80 f   MSVCRT:utility_desktop.obj
 0001:00017d84       __scrt_unhandled_exception_filter 0000000180018d84 f   MSVCRT:utility_desktop.obj
 0001:00017de0       _RTC_Initialize            0000000180018de0 f   MSVCRT:initsect.obj
 0001:00017e1c       _RTC_Terminate             0000000180018e1c f   MSVCRT:initsect.obj
 0001:00017e58       _guard_check_icall_nop     0000000180018e58 f i MSVCRT:guard_support.obj
 0001:00017e5c       ReadNoFence64              0000000180018e5c f i MSVCRT:guard_support.obj
 0001:00017e60       ReadPointerNoFence         0000000180018e60 f i MSVCRT:guard_support.obj
 0001:00017e64       _guard_icall_checks_enforced 0000000180018e64 f i MSVCRT:guard_support.obj
 0001:00017e7c       _guard_rf_checks_enforced  0000000180018e7c f i MSVCRT:guard_support.obj
 0001:00017e80       __isa_available_init       0000000180018e80 f   MSVCRT:cpu_disp.obj
 0001:00018024       _get_startup_argv_mode     0000000180019024 f   MSVCRT:argv_mode.obj
 0001:0001802c       __scrt_is_ucrt_dll_in_use  000000018001902c f   MSVCRT:ucrt_detection.obj
 0001:00018040       RtlCaptureContext          0000000180019040 f   kernel32:KERNEL32.dll
 0001:00018046       RtlLookupFunctionEntry     0000000180019046 f   kernel32:KERNEL32.dll
 0001:0001804c       RtlVirtualUnwind           000000018001904c f   kernel32:KERNEL32.dll
 0001:00018052       UnhandledExceptionFilter   0000000180019052 f   kernel32:KERNEL32.dll
 0001:00018058       SetUnhandledExceptionFilter 0000000180019058 f   kernel32:KERNEL32.dll
 0001:0001805e       GetCurrentProcess          000000018001905e f   kernel32:KERNEL32.dll
 0001:00018064       TerminateProcess           0000000180019064 f   kernel32:KERNEL32.dll
 0001:0001806a       IsProcessorFeaturePresent  000000018001906a f   kernel32:KERNEL32.dll
 0001:00018070       QueryPerformanceCounter    0000000180019070 f   kernel32:KERNEL32.dll
 0001:00018076       GetCurrentProcessId        0000000180019076 f   kernel32:KERNEL32.dll
 0001:0001807c       GetCurrentThreadId         000000018001907c f   kernel32:KERNEL32.dll
 0001:00018082       GetSystemTimeAsFileTime    0000000180019082 f   kernel32:KERNEL32.dll
 0001:00018088       DisableThreadLibraryCalls  0000000180019088 f   kernel32:KERNEL32.dll
 0001:0001808e       InitializeSListHead        000000018001908e f   kernel32:KERNEL32.dll
 0001:00018094       IsDebuggerPresent          0000000180019094 f   kernel32:KERNEL32.dll
 0001:0001809a       GetStartupInfoW            000000018001909a f   kernel32:KERNEL32.dll
 0001:000180a0       GetModuleHandleW           00000001800190a0 f   kernel32:KERNEL32.dll
 0001:000180a6       memcpy                     00000001800190a6 f   vcruntime:VCRUNTIME140.dll
 0001:000180ac       memset                     00000001800190ac f   vcruntime:VCRUNTIME140.dll
 0001:000180b2       __C_specific_handler       00000001800190b2 f   vcruntime:VCRUNTIME140.dll
 0001:000180b8       __std_type_info_destroy_list 00000001800190b8 f   vcruntime:VCRUNTIME140.dll
 0001:000180be       __current_exception        00000001800190be f   vcruntime:VCRUNTIME140.dll
 0001:000180c4       __current_exception_context 00000001800190c4 f   vcruntime:VCRUNTIME140.dll
 0001:000180ca       strcmp                     00000001800190ca f   ucrt:api-ms-win-crt-string-l1-1-0.dll
 0001:000180d0       __stdio_common_vsprintf    00000001800190d0 f   ucrt:api-ms-win-crt-stdio-l1-1-0.dll
 0001:000180d6       free                       00000001800190d6 f   ucrt:api-ms-win-crt-heap-l1-1-0.dll
 0001:000180dc       malloc                     00000001800190dc f   ucrt:api-ms-win-crt-heap-l1-1-0.dll
 0001:000180e2       strlen                     00000001800190e2 f   ucrt:api-ms-win-crt-string-l1-1-0.dll
 0001:000180e8       strcat                     00000001800190e8 f   ucrt:api-ms-win-crt-string-l1-1-0.dll
 0001:000180ee       _initterm                  00000001800190ee f   ucrt:api-ms-win-crt-runtime-l1-1-0.dll
 0001:000180f4       _initterm_e                00000001800190f4 f   ucrt:api-ms-win-crt-runtime-l1-1-0.dll
 0001:000180fa       _seh_filter_dll            00000001800190fa f   ucrt:api-ms-win-crt-runtime-l1-1-0.dll
 0001:00018100       _configure_narrow_argv     0000000180019100 f   ucrt:api-ms-win-crt-runtime-l1-1-0.dll
 0001:00018106       _initialize_narrow_environment 0000000180019106 f   ucrt:api-ms-win-crt-runtime-l1-1-0.dll
 0001:0001810c       _initialize_onexit_table   000000018001910c f   ucrt:api-ms-win-crt-runtime-l1-1-0.dll
 0001:00018112       _register_onexit_function  0000000180019112 f   ucrt:api-ms-win-crt-runtime-l1-1-0.dll
 0001:00018118       _execute_onexit_table      0000000180019118 f   ucrt:api-ms-win-crt-runtime-l1-1-0.dll
 0001:0001811e       _crt_atexit                000000018001911e f   ucrt:api-ms-win-crt-runtime-l1-1-0.dll
 0001:00018124       _crt_at_quick_exit         0000000180019124 f   ucrt:api-ms-win-crt-runtime-l1-1-0.dll
 0001:0001812a       _cexit                     000000018001912a f   ucrt:api-ms-win-crt-runtime-l1-1-0.dll
 0001:00018130       terminate                  0000000180019130 f   ucrt:api-ms-win-crt-runtime-l1-1-0.dll
 0001:00018136       setStation_Address_G1WZrK4kHQSfLP1BLKd6ID 0000000180019136 f   G1WZrK4kHQSfLP1BLKd6ID_cclib:G1WZrK4kHQSfLP1BLKd6ID_cclib.dll
 0001:0001813c       setSlave_Version_G1WZrK4kHQSfLP1BLKd6ID 000000018001913c f   G1WZrK4kHQSfLP1BLKd6ID_cclib:G1WZrK4kHQSfLP1BLKd6ID_cclib.dll
 0001:00018142       setMaster_Version_G1WZrK4kHQSfLP1BLKd6ID 0000000180019142 f   G1WZrK4kHQSfLP1BLKd6ID_cclib:G1WZrK4kHQSfLP1BLKd6ID_cclib.dll
 0001:00018148       setS_Status_G1WZrK4kHQSfLP1BLKd6ID 0000000180019148 f   G1WZrK4kHQSfLP1BLKd6ID_cclib:G1WZrK4kHQSfLP1BLKd6ID_cclib.dll
 0001:0001814e       setData_G1WZrK4kHQSfLP1BLKd6ID 000000018001914e f   G1WZrK4kHQSfLP1BLKd6ID_cclib:G1WZrK4kHQSfLP1BLKd6ID_cclib.dll
 0001:00018154       setHandled_G1WZrK4kHQSfLP1BLKd6ID 0000000180019154 f   G1WZrK4kHQSfLP1BLKd6ID_cclib:G1WZrK4kHQSfLP1BLKd6ID_cclib.dll
 0001:0001815a       setCurrent_State_G1WZrK4kHQSfLP1BLKd6ID 000000018001915a f   G1WZrK4kHQSfLP1BLKd6ID_cclib:G1WZrK4kHQSfLP1BLKd6ID_cclib.dll
 0001:00018160       getStation_Address_G1WZrK4kHQSfLP1BLKd6ID 0000000180019160 f   G1WZrK4kHQSfLP1BLKd6ID_cclib:G1WZrK4kHQSfLP1BLKd6ID_cclib.dll
 0001:00018166       getSlave_Version_G1WZrK4kHQSfLP1BLKd6ID 0000000180019166 f   G1WZrK4kHQSfLP1BLKd6ID_cclib:G1WZrK4kHQSfLP1BLKd6ID_cclib.dll
 0001:0001816c       getS_Status_G1WZrK4kHQSfLP1BLKd6ID 000000018001916c f   G1WZrK4kHQSfLP1BLKd6ID_cclib:G1WZrK4kHQSfLP1BLKd6ID_cclib.dll
 0001:00018172       getMTAPtr_G1WZrK4kHQSfLP1BLKd6ID 0000000180019172 f   G1WZrK4kHQSfLP1BLKd6ID_cclib:G1WZrK4kHQSfLP1BLKd6ID_cclib.dll
 0001:00018178       getDataPtr_G1WZrK4kHQSfLP1BLKd6ID 0000000180019178 f   G1WZrK4kHQSfLP1BLKd6ID_cclib:G1WZrK4kHQSfLP1BLKd6ID_cclib.dll
 0001:0001817e       c_read_uint8s_G1WZrK4kHQSfLP1BLKd6ID 000000018001917e f   G1WZrK4kHQSfLP1BLKd6ID_cclib:G1WZrK4kHQSfLP1BLKd6ID_cclib.dll
 0001:00018184       c_write_uint8s_G1WZrK4kHQSfLP1BLKd6ID 0000000180019184 f   G1WZrK4kHQSfLP1BLKd6ID_cclib:G1WZrK4kHQSfLP1BLKd6ID_cclib.dll
 0001:0001818a       c_init_daq_list_G1WZrK4kHQSfLP1BLKd6ID 000000018001918a f   G1WZrK4kHQSfLP1BLKd6ID_cclib:G1WZrK4kHQSfLP1BLKd6ID_cclib.dll
 0001:00018190       c_set_element_pointer_G1WZrK4kHQSfLP1BLKd6ID 0000000180019190 f   G1WZrK4kHQSfLP1BLKd6ID_cclib:G1WZrK4kHQSfLP1BLKd6ID_cclib.dll
 0001:00018196       c_write_daq_G1WZrK4kHQSfLP1BLKd6ID 0000000180019196 f   G1WZrK4kHQSfLP1BLKd6ID_cclib:G1WZrK4kHQSfLP1BLKd6ID_cclib.dll
 0001:0001819c       c_start_stop_G1WZrK4kHQSfLP1BLKd6ID 000000018001919c f   G1WZrK4kHQSfLP1BLKd6ID_cclib:G1WZrK4kHQSfLP1BLKd6ID_cclib.dll
 0001:000181a2       c_start_stop_all_G1WZrK4kHQSfLP1BLKd6ID 00000001800191a2 f   G1WZrK4kHQSfLP1BLKd6ID_cclib:G1WZrK4kHQSfLP1BLKd6ID_cclib.dll
 0001:000181a8       c_reset_all_DAQ_lists_G1WZrK4kHQSfLP1BLKd6ID 00000001800191a8 f   G1WZrK4kHQSfLP1BLKd6ID_cclib:G1WZrK4kHQSfLP1BLKd6ID_cclib.dll
 0001:000181b0       __vcrt_initialize          00000001800191b0 f   MSVCRT:ucrt_stubs.obj
 0001:000181b0       __scrt_stub_for_acrt_initialize 00000001800191b0 f   MSVCRT:ucrt_stubs.obj
 0001:000181b0       __acrt_initialize          00000001800191b0 f   MSVCRT:ucrt_stubs.obj
 0001:000181b4       __scrt_stub_for_acrt_thread_attach 00000001800191b4 f   MSVCRT:ucrt_stubs.obj
 0001:000181b4       __vcrt_thread_attach       00000001800191b4 f   MSVCRT:ucrt_stubs.obj
 0001:000181b4       __acrt_thread_attach       00000001800191b4 f   MSVCRT:ucrt_stubs.obj
 0001:000181b8       __acrt_thread_detach       00000001800191b8 f   MSVCRT:ucrt_stubs.obj
 0001:000181b8       __scrt_stub_for_acrt_thread_detach 00000001800191b8 f   MSVCRT:ucrt_stubs.obj
 0001:000181b8       __vcrt_thread_detach       00000001800191b8 f   MSVCRT:ucrt_stubs.obj
 0001:000181bc       __scrt_stub_for_acrt_uninitialize 00000001800191bc f   MSVCRT:ucrt_stubs.obj
 0001:000181bc       __acrt_uninitialize        00000001800191bc f   MSVCRT:ucrt_stubs.obj
 0001:000181bc       __vcrt_uninitialize        00000001800191bc f   MSVCRT:ucrt_stubs.obj
 0001:000181c0       __acrt_uninitialize_critical 00000001800191c0 f   MSVCRT:ucrt_stubs.obj
 0001:000181c0       __vcrt_uninitialize_critical 00000001800191c0 f   MSVCRT:ucrt_stubs.obj
 0001:000181c0       __scrt_stub_for_acrt_uninitialize_critical 00000001800191c0 f   MSVCRT:ucrt_stubs.obj
 0001:000181c4       _is_c_termination_complete 00000001800191c4 f   MSVCRT:ucrt_stubs.obj
 0001:000181c4       __scrt_stub_for_is_c_termination_complete 00000001800191c4 f   MSVCRT:ucrt_stubs.obj
 0001:000181e0       _guard_dispatch_icall_nop  00000001800191e0 f   MSVCRT:guard_dispatch.obj
 0002:00000000       __imp_getMTAPtr_G1WZrK4kHQSfLP1BLKd6ID 000000018001a000     G1WZrK4kHQSfLP1BLKd6ID_cclib:G1WZrK4kHQSfLP1BLKd6ID_cclib.dll
 0002:00000008       __imp_c_reset_all_DAQ_lists_G1WZrK4kHQSfLP1BLKd6ID 000000018001a008     G1WZrK4kHQSfLP1BLKd6ID_cclib:G1WZrK4kHQSfLP1BLKd6ID_cclib.dll
 0002:00000010       __imp_c_start_stop_all_G1WZrK4kHQSfLP1BLKd6ID 000000018001a010     G1WZrK4kHQSfLP1BLKd6ID_cclib:G1WZrK4kHQSfLP1BLKd6ID_cclib.dll
 0002:00000018       __imp_c_start_stop_G1WZrK4kHQSfLP1BLKd6ID 000000018001a018     G1WZrK4kHQSfLP1BLKd6ID_cclib:G1WZrK4kHQSfLP1BLKd6ID_cclib.dll
 0002:00000020       __imp_c_write_daq_G1WZrK4kHQSfLP1BLKd6ID 000000018001a020     G1WZrK4kHQSfLP1BLKd6ID_cclib:G1WZrK4kHQSfLP1BLKd6ID_cclib.dll
 0002:00000028       __imp_c_set_element_pointer_G1WZrK4kHQSfLP1BLKd6ID 000000018001a028     G1WZrK4kHQSfLP1BLKd6ID_cclib:G1WZrK4kHQSfLP1BLKd6ID_cclib.dll
 0002:00000030       __imp_c_init_daq_list_G1WZrK4kHQSfLP1BLKd6ID 000000018001a030     G1WZrK4kHQSfLP1BLKd6ID_cclib:G1WZrK4kHQSfLP1BLKd6ID_cclib.dll
 0002:00000038       __imp_c_write_uint8s_G1WZrK4kHQSfLP1BLKd6ID 000000018001a038     G1WZrK4kHQSfLP1BLKd6ID_cclib:G1WZrK4kHQSfLP1BLKd6ID_cclib.dll
 0002:00000040       __imp_c_read_uint8s_G1WZrK4kHQSfLP1BLKd6ID 000000018001a040     G1WZrK4kHQSfLP1BLKd6ID_cclib:G1WZrK4kHQSfLP1BLKd6ID_cclib.dll
 0002:00000048       __imp_getDataPtr_G1WZrK4kHQSfLP1BLKd6ID 000000018001a048     G1WZrK4kHQSfLP1BLKd6ID_cclib:G1WZrK4kHQSfLP1BLKd6ID_cclib.dll
 0002:00000050       __imp_setStation_Address_G1WZrK4kHQSfLP1BLKd6ID 000000018001a050     G1WZrK4kHQSfLP1BLKd6ID_cclib:G1WZrK4kHQSfLP1BLKd6ID_cclib.dll
 0002:00000058       __imp_getS_Status_G1WZrK4kHQSfLP1BLKd6ID 000000018001a058     G1WZrK4kHQSfLP1BLKd6ID_cclib:G1WZrK4kHQSfLP1BLKd6ID_cclib.dll
 0002:00000060       __imp_getSlave_Version_G1WZrK4kHQSfLP1BLKd6ID 000000018001a060     G1WZrK4kHQSfLP1BLKd6ID_cclib:G1WZrK4kHQSfLP1BLKd6ID_cclib.dll
 0002:00000068       __imp_getStation_Address_G1WZrK4kHQSfLP1BLKd6ID 000000018001a068     G1WZrK4kHQSfLP1BLKd6ID_cclib:G1WZrK4kHQSfLP1BLKd6ID_cclib.dll
 0002:00000070       __imp_setCurrent_State_G1WZrK4kHQSfLP1BLKd6ID 000000018001a070     G1WZrK4kHQSfLP1BLKd6ID_cclib:G1WZrK4kHQSfLP1BLKd6ID_cclib.dll
 0002:00000078       __imp_setHandled_G1WZrK4kHQSfLP1BLKd6ID 000000018001a078     G1WZrK4kHQSfLP1BLKd6ID_cclib:G1WZrK4kHQSfLP1BLKd6ID_cclib.dll
 0002:00000080       __imp_setData_G1WZrK4kHQSfLP1BLKd6ID 000000018001a080     G1WZrK4kHQSfLP1BLKd6ID_cclib:G1WZrK4kHQSfLP1BLKd6ID_cclib.dll
 0002:00000088       __imp_setS_Status_G1WZrK4kHQSfLP1BLKd6ID 000000018001a088     G1WZrK4kHQSfLP1BLKd6ID_cclib:G1WZrK4kHQSfLP1BLKd6ID_cclib.dll
 0002:00000090       __imp_setMaster_Version_G1WZrK4kHQSfLP1BLKd6ID 000000018001a090     G1WZrK4kHQSfLP1BLKd6ID_cclib:G1WZrK4kHQSfLP1BLKd6ID_cclib.dll
 0002:00000098       __imp_setSlave_Version_G1WZrK4kHQSfLP1BLKd6ID 000000018001a098     G1WZrK4kHQSfLP1BLKd6ID_cclib:G1WZrK4kHQSfLP1BLKd6ID_cclib.dll
 0002:000000a0       \177G1WZrK4kHQSfLP1BLKd6ID_cclib_NULL_THUNK_DATA 000000018001a0a0     G1WZrK4kHQSfLP1BLKd6ID_cclib:G1WZrK4kHQSfLP1BLKd6ID_cclib.dll
 0002:000000a8       __imp_RtlLookupFunctionEntry 000000018001a0a8     kernel32:KERNEL32.dll
 0002:000000b0       __imp_RtlVirtualUnwind     000000018001a0b0     kernel32:KERNEL32.dll
 0002:000000b8       __imp_UnhandledExceptionFilter 000000018001a0b8     kernel32:KERNEL32.dll
 0002:000000c0       __imp_SetUnhandledExceptionFilter 000000018001a0c0     kernel32:KERNEL32.dll
 0002:000000c8       __imp_GetCurrentProcess    000000018001a0c8     kernel32:KERNEL32.dll
 0002:000000d0       __imp_TerminateProcess     000000018001a0d0     kernel32:KERNEL32.dll
 0002:000000d8       __imp_IsProcessorFeaturePresent 000000018001a0d8     kernel32:KERNEL32.dll
 0002:000000e0       __imp_QueryPerformanceCounter 000000018001a0e0     kernel32:KERNEL32.dll
 0002:000000e8       __imp_GetCurrentProcessId  000000018001a0e8     kernel32:KERNEL32.dll
 0002:000000f0       __imp_GetCurrentThreadId   000000018001a0f0     kernel32:KERNEL32.dll
 0002:000000f8       __imp_GetSystemTimeAsFileTime 000000018001a0f8     kernel32:KERNEL32.dll
 0002:00000100       __imp_DisableThreadLibraryCalls 000000018001a100     kernel32:KERNEL32.dll
 0002:00000108       __imp_InitializeSListHead  000000018001a108     kernel32:KERNEL32.dll
 0002:00000110       __imp_RtlCaptureContext    000000018001a110     kernel32:KERNEL32.dll
 0002:00000118       __imp_IsDebuggerPresent    000000018001a118     kernel32:KERNEL32.dll
 0002:00000120       __imp_GetStartupInfoW      000000018001a120     kernel32:KERNEL32.dll
 0002:00000128       __imp_GetModuleHandleW     000000018001a128     kernel32:KERNEL32.dll
 0002:00000130       \177KERNEL32_NULL_THUNK_DATA 000000018001a130     kernel32:KERNEL32.dll
 0002:00000138       __imp_memcpy               000000018001a138     vcruntime:VCRUNTIME140.dll
 0002:00000140       __imp_memset               000000018001a140     vcruntime:VCRUNTIME140.dll
 0002:00000148       __imp___C_specific_handler 000000018001a148     vcruntime:VCRUNTIME140.dll
 0002:00000150       __imp___std_type_info_destroy_list 000000018001a150     vcruntime:VCRUNTIME140.dll
 0002:00000158       __imp___current_exception  000000018001a158     vcruntime:VCRUNTIME140.dll
 0002:00000160       __imp___current_exception_context 000000018001a160     vcruntime:VCRUNTIME140.dll
 0002:00000168       \177VCRUNTIME140_NULL_THUNK_DATA 000000018001a168     vcruntime:VCRUNTIME140.dll
 0002:00000170       __imp_free                 000000018001a170     ucrt:api-ms-win-crt-heap-l1-1-0.dll
 0002:00000178       __imp_malloc               000000018001a178     ucrt:api-ms-win-crt-heap-l1-1-0.dll
 0002:00000180       \177api-ms-win-crt-heap-l1-1-0_NULL_THUNK_DATA 000000018001a180     ucrt:api-ms-win-crt-heap-l1-1-0.dll
 0002:00000188       __imp__initterm_e          000000018001a188     ucrt:api-ms-win-crt-runtime-l1-1-0.dll
 0002:00000190       __imp_terminate            000000018001a190     ucrt:api-ms-win-crt-runtime-l1-1-0.dll
 0002:00000198       __imp__cexit               000000018001a198     ucrt:api-ms-win-crt-runtime-l1-1-0.dll
 0002:000001a0       __imp__initterm            000000018001a1a0     ucrt:api-ms-win-crt-runtime-l1-1-0.dll
 0002:000001a8       __imp__seh_filter_dll      000000018001a1a8     ucrt:api-ms-win-crt-runtime-l1-1-0.dll
 0002:000001b0       __imp__configure_narrow_argv 000000018001a1b0     ucrt:api-ms-win-crt-runtime-l1-1-0.dll
 0002:000001b8       __imp__initialize_narrow_environment 000000018001a1b8     ucrt:api-ms-win-crt-runtime-l1-1-0.dll
 0002:000001c0       __imp__initialize_onexit_table 000000018001a1c0     ucrt:api-ms-win-crt-runtime-l1-1-0.dll
 0002:000001c8       __imp__register_onexit_function 000000018001a1c8     ucrt:api-ms-win-crt-runtime-l1-1-0.dll
 0002:000001d0       __imp__execute_onexit_table 000000018001a1d0     ucrt:api-ms-win-crt-runtime-l1-1-0.dll
 0002:000001d8       __imp__crt_atexit          000000018001a1d8     ucrt:api-ms-win-crt-runtime-l1-1-0.dll
 0002:000001e0       __imp__crt_at_quick_exit   000000018001a1e0     ucrt:api-ms-win-crt-runtime-l1-1-0.dll
 0002:000001e8       \177api-ms-win-crt-runtime-l1-1-0_NULL_THUNK_DATA 000000018001a1e8     ucrt:api-ms-win-crt-runtime-l1-1-0.dll
 0002:000001f0       __imp___stdio_common_vsprintf 000000018001a1f0     ucrt:api-ms-win-crt-stdio-l1-1-0.dll
 0002:000001f8       \177api-ms-win-crt-stdio-l1-1-0_NULL_THUNK_DATA 000000018001a1f8     ucrt:api-ms-win-crt-stdio-l1-1-0.dll
 0002:00000200       __imp_strlen               000000018001a200     ucrt:api-ms-win-crt-string-l1-1-0.dll
 0002:00000208       __imp_strcmp               000000018001a208     ucrt:api-ms-win-crt-string-l1-1-0.dll
 0002:00000210       __imp_strcat               000000018001a210     ucrt:api-ms-win-crt-string-l1-1-0.dll
 0002:00000218       \177api-ms-win-crt-string-l1-1-0_NULL_THUNK_DATA 000000018001a218     ucrt:api-ms-win-crt-string-l1-1-0.dll
 0002:00000220       __imp_covrtSigUpdateFcn    000000018001a220     libcovrt:libcovrt.dll
 0002:00000228       __imp_covrtCondUpdateFcn   000000018001a228     libcovrt:libcovrt.dll
 0002:00000230       __imp_covrtTransitionDecUpdateFcn 000000018001a230     libcovrt:libcovrt.dll
 0002:00000238       __imp_covrtDecUpdateFcn    000000018001a238     libcovrt:libcovrt.dll
 0002:00000240       __imp_covrtRelationalopUpdateFcn 000000018001a240     libcovrt:libcovrt.dll
 0002:00000248       __imp_covrtChartInitFcn    000000018001a248     libcovrt:libcovrt.dll
 0002:00000250       __imp_covrtCreateStateflowInstanceData 000000018001a250     libcovrt:libcovrt.dll
 0002:00000258       __imp_covrtDeleteStateflowInstanceData 000000018001a258     libcovrt:libcovrt.dll
 0002:00000260       __imp_covrtRelationalopInitFcn 000000018001a260     libcovrt:libcovrt.dll
 0002:00000268       __imp_covrtTransInitFcn    000000018001a268     libcovrt:libcovrt.dll
 0002:00000270       __imp_covrtStateInitFcn    000000018001a270     libcovrt:libcovrt.dll
 0002:00000278       \177libcovrt_NULL_THUNK_DATA 000000018001a278     libcovrt:libcovrt.dll
 0002:00000280       __imp_mexWarnMsgTxt_800    000000018001a280     libmex:libmex.dll
 0002:00000288       __imp_mexCallMATLAB_800    000000018001a288     libmex:libmex.dll
 0002:00000290       __imp_mexLock_800          000000018001a290     libmex:libmex.dll
 0002:00000298       __imp_mexUnlock_800        000000018001a298     libmex:libmex.dll
 0002:000002a0       __imp_mexErrMsgTxt_800     000000018001a2a0     libmex:libmex.dll
 0002:000002a8       __imp_mexIsLocked_800      000000018001a2a8     libmex:libmex.dll
 0002:000002b0       __imp_mexMakeArrayPersistent_800 000000018001a2b0     libmex:libmex.dll
 0002:000002b8       \177libmex_NULL_THUNK_DATA 000000018001a2b8     libmex:libmex.dll
 0002:000002c0       __imp_slcovUploadCoverageSynthesisBySimstruct 000000018001a2c0     libmwsl_sfcn_cov_bridge:libmwsl_sfcn_cov_bridge.dll
 0002:000002c8       \177libmwsl_sfcn_cov_bridge_NULL_THUNK_DATA 000000018001a2c8     libmwsl_sfcn_cov_bridge:libmwsl_sfcn_cov_bridge.dll
 0002:000002d0       __imp_mxGetScalar_800      000000018001a2d0     libmx:libmx.dll
 0002:000002d8       __imp_mxGetPr_800          000000018001a2d8     libmx:libmx.dll
 0002:000002e0       __imp_mxDestroyArray_800   000000018001a2e0     libmx:libmx.dll
 0002:000002e8       __imp_mxCreateDoubleMatrix_800 000000018001a2e8     libmx:libmx.dll
 0002:000002f0       __imp_mxCreateStructMatrix_800 000000018001a2f0     libmx:libmx.dll
 0002:000002f8       __imp_mxCreateCellMatrix_800 000000018001a2f8     libmx:libmx.dll
 0002:00000300       __imp_mxSetField_800       000000018001a300     libmx:libmx.dll
 0002:00000308       __imp_mxDuplicateArray_800 000000018001a308     libmx:libmx.dll
 0002:00000310       __imp_mxCreateString_800   000000018001a310     libmx:libmx.dll
 0002:00000318       __imp_mxCreateDoubleScalar_800 000000018001a318     libmx:libmx.dll
 0002:00000320       __imp_mxGetN_800           000000018001a320     libmx:libmx.dll
 0002:00000328       __imp_mxIsComplex_800      000000018001a328     libmx:libmx.dll
 0002:00000330       __imp_mxIsNumeric_800      000000018001a330     libmx:libmx.dll
 0002:00000338       __imp_mxGetClassID_800     000000018001a338     libmx:libmx.dll
 0002:00000340       __imp_mxGetM_800           000000018001a340     libmx:libmx.dll
 0002:00000348       __imp_mxCalloc_800         000000018001a348     libmx:libmx.dll
 0002:00000350       __imp_mxGetString_800      000000018001a350     libmx:libmx.dll
 0002:00000358       __imp_mxIsChar_800         000000018001a358     libmx:libmx.dll
 0002:00000360       \177libmx_NULL_THUNK_DATA  000000018001a360     libmx:libmx.dll
 0002:00000368       __imp_utFree               000000018001a368     libut:libut.dll
 0002:00000370       __imp_utMalloc             000000018001a370     libut:libut.dll
 0002:00000378       \177libut_NULL_THUNK_DATA  000000018001a378     libut:libut.dll
 0002:00000380       __imp_sf_get_ChartInfoStruct_CodeGen 000000018001a380     sf_runtime:sf_runtime.dll
 0002:00000388       __imp_sf_data_overflow_error 000000018001a388     sf_runtime:sf_runtime.dll
 0002:00000390       __imp_ssGetInputPortSignal_wrapper 000000018001a390     sf_runtime:sf_runtime.dll
 0002:00000398       __imp_sf_mex_duplicatearraysafe 000000018001a398     sf_runtime:sf_runtime.dll
 0002:000003a0       __imp_sf_mex_import_named  000000018001a3a0     sf_runtime:sf_runtime.dll
 0002:000003a8       __imp_sf_mex_import        000000018001a3a8     sf_runtime:sf_runtime.dll
 0002:000003b0       __imp_sf_mex_destroy       000000018001a3b0     sf_runtime:sf_runtime.dll
 0002:000003b8       __imp_sf_mex_dup           000000018001a3b8     sf_runtime:sf_runtime.dll
 0002:000003c0       __imp_sf_mex_assign        000000018001a3c0     sf_runtime:sf_runtime.dll
 0002:000003c8       __imp_sf_mex_getcell       000000018001a3c8     sf_runtime:sf_runtime.dll
 0002:000003d0       __imp_sf_mex_setcell       000000018001a3d0     sf_runtime:sf_runtime.dll
 0002:000003d8       __imp_sf_mex_createcellmatrix 000000018001a3d8     sf_runtime:sf_runtime.dll
 0002:000003e0       __imp_sf_mex_create        000000018001a3e0     sf_runtime:sf_runtime.dll
 0002:000003e8       __imp_sf_mex_error_message 000000018001a3e8     sf_runtime:sf_runtime.dll
 0002:000003f0       __imp_sfListenerLightTerminate 000000018001a3f0     sf_runtime:sf_runtime.dll
 0002:000003f8       __imp_sfListenerCacheSimStruct 000000018001a3f8     sf_runtime:sf_runtime.dll
 0002:00000400       __imp_sf_set_work_widths   000000018001a400     sf_runtime:sf_runtime.dll
 0002:00000408       __imp_sf_warn_if_symbolic_dimension_param_changed 000000018001a408     sf_runtime:sf_runtime.dll
 0002:00000410       __imp_setDebuggerFlag      000000018001a410     sf_runtime:sf_runtime.dll
 0002:00000418       __imp_setLegacyDebuggerFlag 000000018001a418     sf_runtime:sf_runtime.dll
 0002:00000420       __imp_setDataBrowseFcn     000000018001a420     sf_runtime:sf_runtime.dll
 0002:00000428       __imp_sfDoAnimationWrapper 000000018001a428     sf_runtime:sf_runtime.dll
 0002:00000430       __imp_sf_force_animation_for_chart_exec_at_init 000000018001a430     sf_runtime:sf_runtime.dll
 0002:00000438       __imp_sf_get_time          000000018001a438     sf_runtime:sf_runtime.dll
 0002:00000440       __imp_sf_clear_rtw_identifier 000000018001a440     sf_runtime:sf_runtime.dll
 0002:00000448       __imp_sf_mex_get_sfun_param 000000018001a448     sf_runtime:sf_runtime.dll
 0002:00000450       __imp_sim_mode_is_external 000000018001a450     sf_runtime:sf_runtime.dll
 0002:00000458       __imp_sf_get_chart_instance_ptr 000000018001a458     sf_runtime:sf_runtime.dll
 0002:00000460       __imp_sfrtGetCovrtInstance 000000018001a460     sf_runtime:sf_runtime.dll
 0002:00000468       __imp_sfrtGetEmlrtCtx      000000018001a468     sf_runtime:sf_runtime.dll
 0002:00000470       __imp_sf_free_ChartRunTimeInfo 000000018001a470     sf_runtime:sf_runtime.dll
 0002:00000478       __imp_sf_init_ChartRunTimeInfo 000000018001a478     sf_runtime:sf_runtime.dll
 0002:00000480       __imp_sf_mex_decode        000000018001a480     sf_runtime:sf_runtime.dll
 0002:00000488       __imp_sf_clear_error_manager_info 000000018001a488     sf_runtime:sf_runtime.dll
 0002:00000490       __imp_sf_mex_error_direct_call 000000018001a490     sf_runtime:sf_runtime.dll
 0002:00000498       __imp_getRuntimeInstanceInfoAsVoid 000000018001a498     sf_runtime:sf_runtime.dll
 0002:000004a0       __imp_call_sf_machine_global_method_dispatcher 000000018001a4a0     sf_runtime:sf_runtime.dll
 0002:000004a8       __imp_sim_mode_is_rtw_gen  000000018001a4a8     sf_runtime:sf_runtime.dll
 0002:000004b0       __imp_callMdlMethodAndReportError 000000018001a4b0     sf_runtime:sf_runtime.dll
 0002:000004b8       __imp_sf_get_hasSeparateUpdateOutputs 000000018001a4b8     sf_runtime:sf_runtime.dll
 0002:000004c0       __imp_sf_load_rtw_optimization_info 000000018001a4c0     sf_runtime:sf_runtime.dll
 0002:000004c8       \177sf_runtime_NULL_THUNK_DATA 000000018001a4c8     sf_runtime:sf_runtime.dll
 0002:000004d0       __guard_check_icall_fptr   000000018001a4d0     MSVCRT:guard_support.obj
 0002:000004d8       __guard_dispatch_icall_fptr 000000018001a4d8     MSVCRT:guard_support.obj
 0002:000004e0       __xc_a                     000000018001a4e0     MSVCRT:initializers.obj
 0002:000004e8       __xc_z                     000000018001a4e8     MSVCRT:initializers.obj
 0002:000004f0       __xi_a                     000000018001a4f0     MSVCRT:initializers.obj
 0002:000004f8       __xi_z                     000000018001a4f8     MSVCRT:initializers.obj
 0002:00000500       __xp_a                     000000018001a500     MSVCRT:initializers.obj
 0002:00000508       __xp_z                     000000018001a508     MSVCRT:initializers.obj
 0002:00000510       __xt_a                     000000018001a510     MSVCRT:initializers.obj
 0002:00000518       __xt_z                     000000018001a518     MSVCRT:initializers.obj
 0002:00000520       __real@41bee59f28000000    000000018001a520     Fuel_Pump_V3_1_20201113_20KHz_sfun.obj
 0002:00000528       __real@41cd0f763d800000    000000018001a528     Fuel_Pump_V3_1_20201113_20KHz_sfun.obj
 0002:00000530       __real@41d32f409d800000    000000018001a530     Fuel_Pump_V3_1_20201113_20KHz_sfun.obj
 0002:00000538       __real@41d72f00ed400000    000000018001a538     Fuel_Pump_V3_1_20201113_20KHz_sfun.obj
 0002:00000540       __real@41d9722a92800000    000000018001a540     Fuel_Pump_V3_1_20201113_20KHz_sfun.obj
 0002:00000548       __real@41dc67c90c400000    000000018001a548     Fuel_Pump_V3_1_20201113_20KHz_sfun.obj
 0002:00000550       __real@41dd232e53400000    000000018001a550     Fuel_Pump_V3_1_20201113_20KHz_sfun.obj
 0002:00000558       __real@41e794e786000000    000000018001a558     Fuel_Pump_V3_1_20201113_20KHz_sfun.obj
 0002:00000560       __real@41e7b2173b000000    000000018001a560     Fuel_Pump_V3_1_20201113_20KHz_sfun.obj
 0002:00000568       __real@41eb45693d800000    000000018001a568     Fuel_Pump_V3_1_20201113_20KHz_sfun.obj
 0002:00000570       __real@41ec68e82c200000    000000018001a570     Fuel_Pump_V3_1_20201113_20KHz_sfun.obj
 0002:00000578       __real@41ee2b2c82200000    000000018001a578     Fuel_Pump_V3_1_20201113_20KHz_sfun.obj
 0002:00000580       DYNAMIC_DIMENSION_DEF      000000018001a580     Fuel_Pump_V3_1_20201113_20KHz_sfun_registry.obj
 0002:00000598       __real@0000000000000000    000000018001a598     Fuel_Pump_V3_1_20201113_20KHz_sfun_registry.obj
 0002:000005a0       __real@4010000000000000    000000018001a5a0     Fuel_Pump_V3_1_20201113_20KHz_sfun_registry.obj
 0002:000005a8       __real@41602cbca0000000    000000018001a5a8     Fuel_Pump_V3_1_20201113_20KHz_sfun_registry.obj
 0002:000005b0       __real@bff0000000000000    000000018001a5b0     Fuel_Pump_V3_1_20201113_20KHz_sfun_registry.obj
 0002:000005b8       __real@41bf331d75000000    000000018001a5b8     canblocks_extras_sfun:canblocks_extras_sfun.obj
 0002:000005c0       __real@41d0226292c00000    000000018001a5c0     canblocks_extras_sfun:canblocks_extras_sfun.obj
 0002:000005c8       __real@41e7acbab1000000    000000018001a5c8     canblocks_extras_sfun:canblocks_extras_sfun.obj
 0002:000005d0       __real@41edd66b84600000    000000018001a5d0     canblocks_extras_sfun:canblocks_extras_sfun.obj
 0002:00000ab8       __real@3ff0000000000000    000000018001aab8     canblocks_extras_sfun:c28_canblocks_extras.obj
 0002:00000ac0       __real@40f0000000000000    000000018001aac0     canblocks_extras_sfun:c28_canblocks_extras.obj
 0002:00000ac8       __real@41b1e1b140000000    000000018001aac8     canblocks_extras_sfun:c28_canblocks_extras.obj
 0002:00000ad0       __real@41e499c3d7400000    000000018001aad0     canblocks_extras_sfun:c28_canblocks_extras.obj
 0002:00000ad8       __real@41e82aa8fca00000    000000018001aad8     canblocks_extras_sfun:c28_canblocks_extras.obj
 0002:00000ae0       __real@41ecee486bc00000    000000018001aae0     canblocks_extras_sfun:c28_canblocks_extras.obj
 0002:00000af8       _pDefaultRawDllMain        000000018001aaf8     MSVCRT:dll_dllmain.obj
 0002:00000af8       _pRawDllMain               000000018001aaf8     MSVCRT:dll_dllmain.obj
 0002:00000b00       __xmm@ffffffffffffffffffffffffffffffff 000000018001ab00     MSVCRT:utility.obj
 0002:00000b30       _load_config_used          000000018001ab30     MSVCRT:loadcfg.obj
 0002:00000e50       __rtc_iaa                  000000018001ae50     MSVCRT:initsect.obj
 0002:00000e58       __rtc_izz                  000000018001ae58     MSVCRT:initsect.obj
 0002:00000e60       __rtc_taa                  000000018001ae60     MSVCRT:initsect.obj
 0002:00000e68       __rtc_tzz                  000000018001ae68     MSVCRT:initsect.obj
 0002:000018cc       __IMPORT_DESCRIPTOR_sf_runtime 000000018001b8cc     sf_runtime:sf_runtime.dll
 0002:000018e0       __IMPORT_DESCRIPTOR_libmx  000000018001b8e0     libmx:libmx.dll
 0002:000018f4       __IMPORT_DESCRIPTOR_libmex 000000018001b8f4     libmex:libmex.dll
 0002:00001908       __IMPORT_DESCRIPTOR_libut  000000018001b908     libut:libut.dll
 0002:0000191c       __IMPORT_DESCRIPTOR_libmwsl_sfcn_cov_bridge 000000018001b91c     libmwsl_sfcn_cov_bridge:libmwsl_sfcn_cov_bridge.dll
 0002:00001930       __IMPORT_DESCRIPTOR_libcovrt 000000018001b930     libcovrt:libcovrt.dll
 0002:00001944       __IMPORT_DESCRIPTOR_KERNEL32 000000018001b944     kernel32:KERNEL32.dll
 0002:00001958       __IMPORT_DESCRIPTOR_VCRUNTIME140 000000018001b958     vcruntime:VCRUNTIME140.dll
 0002:0000196c       __IMPORT_DESCRIPTOR_api-ms-win-crt-string-l1-1-0 000000018001b96c     ucrt:api-ms-win-crt-string-l1-1-0.dll
 0002:00001980       __IMPORT_DESCRIPTOR_api-ms-win-crt-stdio-l1-1-0 000000018001b980     ucrt:api-ms-win-crt-stdio-l1-1-0.dll
 0002:00001994       __IMPORT_DESCRIPTOR_api-ms-win-crt-heap-l1-1-0 000000018001b994     ucrt:api-ms-win-crt-heap-l1-1-0.dll
 0002:000019a8       __IMPORT_DESCRIPTOR_api-ms-win-crt-runtime-l1-1-0 000000018001b9a8     ucrt:api-ms-win-crt-runtime-l1-1-0.dll
 0002:000019bc       __IMPORT_DESCRIPTOR_G1WZrK4kHQSfLP1BLKd6ID_cclib 000000018001b9bc     G1WZrK4kHQSfLP1BLKd6ID_cclib:G1WZrK4kHQSfLP1BLKd6ID_cclib.dll
 0002:000019d0       __NULL_IMPORT_DESCRIPTOR   000000018001b9d0     sf_runtime:sf_runtime.dll
 0003:00000100       DYNAMIC_DIMENSION          000000018001d100     Fuel_Pump_V3_1_20201113_20KHz_sfun_registry.obj
 0003:00003430       __security_cookie_complement 0000000180020430     MSVCRT:gs_cookie.obj
 0003:00003438       __security_cookie          0000000180020438     MSVCRT:gs_cookie.obj
 0003:00003440       _fltused                   0000000180020440     MSVCRT:fltused.obj
 0003:00003444       __scrt_native_dllmain_reason 0000000180020444     MSVCRT:utility.obj
 0003:00003448       __isa_available            0000000180020448     MSVCRT:cpu_disp.obj
 0003:0000344c       __isa_enabled              000000018002044c     MSVCRT:cpu_disp.obj
 0003:00003450       __memcpy_nt_iters          0000000180020450     MSVCRT:cpu_disp.obj
 0003:00003458       __memset_nt_iters          0000000180020458     MSVCRT:cpu_disp.obj
 0003:00003460       __scrt_ucrt_dll_is_in_use  0000000180020460     MSVCRT:ucrt_stubs.obj
 0003:000041f0       ?__type_info_root_node@@3U__type_info_node@@A 00000001800211f0     MSVCRT:tncleanup.obj
 0003:00004200       ?_OptionsStorage@?1??__local_stdio_printf_options@@9@4_KA 0000000180021200     MSVCRT:default_local_stdio_options.obj
 0003:00004208       ?_OptionsStorage@?1??__local_stdio_scanf_options@@9@4_KA 0000000180021208     MSVCRT:default_local_stdio_options.obj
 0003:00004210       __scrt_current_native_startup_state 0000000180021210     MSVCRT:utility.obj
 0003:00004218       __scrt_native_startup_lock 0000000180021218     MSVCRT:utility.obj
 0003:00004258       __scrt_debugger_hook_flag  0000000180021258     MSVCRT:utility_desktop.obj
 0003:0000425c       __favor                    000000018002125c     MSVCRT:cpu_disp.obj
 0003:00004260       ?_OptionsStorage@?1??__local_stdio_printf_options@@9@9 0000000180021260     <common>
 0003:00004268       __dyn_tls_init_callback    0000000180021268     <common>

 entry point at        0001:00017578

 Static symbols

 0000:00000000       .debug$S                   0000000180000000     Fuel_Pump_V3_1_20201113_20KHz_sfun.exp
 0002:fffe6000       __guard_fids_?dllmain_dispatch@@YAHQEAUHINSTANCE__@@KQEAX@Z 0000000180000000     MSVCRT:dll_dllmain.obj
 0002:fffe6000       __guard_fids__             0000000180000000     MSVCRT:guard_support.obj
 0002:fffe6000       __guard_fids__guard_icall_checks_enforced 0000000180000000     MSVCRT:guard_support.obj
 0002:fffe6000       __guard_fids___scrt_set_unhandled_exception_filter 0000000180000000     MSVCRT:utility_desktop.obj
 0000:00000000       .debug$S                   0000000180000000     vcruntime:VCRUNTIME140.dll
 0000:00000000       .debug$S                   0000000180000000     vcruntime:VCRUNTIME140.dll
 0000:00000000       .debug$S                   0000000180000000     vcruntime:VCRUNTIME140.dll
 0000:00000000       .debug$S                   0000000180000000     vcruntime:VCRUNTIME140.dll
 0000:00000000       .debug$S                   0000000180000000     vcruntime:VCRUNTIME140.dll
 0000:00000000       .debug$S                   0000000180000000     vcruntime:VCRUNTIME140.dll
 0000:00000000       .debug$S                   0000000180000000     libcovrt:libcovrt.dll
 0000:00000000       .debug$S                   0000000180000000     libcovrt:libcovrt.dll
 0000:00000000       .debug$S                   0000000180000000     libcovrt:libcovrt.dll
 0000:00000000       .debug$S                   0000000180000000     libcovrt:libcovrt.dll
 0000:00000000       .debug$S                   0000000180000000     libcovrt:libcovrt.dll
 0000:00000000       .debug$S                   0000000180000000     libcovrt:libcovrt.dll
 0000:00000000       .debug$S                   0000000180000000     libcovrt:libcovrt.dll
 0000:00000000       .debug$S                   0000000180000000     libcovrt:libcovrt.dll
 0000:00000000       .debug$S                   0000000180000000     libcovrt:libcovrt.dll
 0000:00000000       .debug$S                   0000000180000000     libcovrt:libcovrt.dll
 0000:00000000       .debug$S                   0000000180000000     libcovrt:libcovrt.dll
 0000:00000000       .debug$S                   0000000180000000     libmex:libmex.dll
 0000:00000000       .debug$S                   0000000180000000     libmex:libmex.dll
 0000:00000000       .debug$S                   0000000180000000     libmex:libmex.dll
 0000:00000000       .debug$S                   0000000180000000     libmex:libmex.dll
 0000:00000000       .debug$S                   0000000180000000     libmex:libmex.dll
 0000:00000000       .debug$S                   0000000180000000     libmex:libmex.dll
 0000:00000000       .debug$S                   0000000180000000     libmex:libmex.dll
 0000:00000000       .debug$S                   0000000180000000     libmwsl_sfcn_cov_bridge:libmwsl_sfcn_cov_bridge.dll
 0000:00000000       .debug$S                   0000000180000000     libmx:libmx.dll
 0000:00000000       .debug$S                   0000000180000000     libmx:libmx.dll
 0000:00000000       .debug$S                   0000000180000000     libmx:libmx.dll
 0000:00000000       .debug$S                   0000000180000000     libmx:libmx.dll
 0000:00000000       .debug$S                   0000000180000000     libmx:libmx.dll
 0000:00000000       .debug$S                   0000000180000000     libmx:libmx.dll
 0000:00000000       .debug$S                   0000000180000000     libmx:libmx.dll
 0000:00000000       .debug$S                   0000000180000000     libmx:libmx.dll
 0000:00000000       .debug$S                   0000000180000000     libmx:libmx.dll
 0000:00000000       .debug$S                   0000000180000000     libmx:libmx.dll
 0000:00000000       .debug$S                   0000000180000000     libmx:libmx.dll
 0000:00000000       .debug$S                   0000000180000000     libmx:libmx.dll
 0000:00000000       .debug$S                   0000000180000000     libmx:libmx.dll
 0000:00000000       .debug$S                   0000000180000000     libmx:libmx.dll
 0000:00000000       .debug$S                   0000000180000000     libmx:libmx.dll
 0000:00000000       .debug$S                   0000000180000000     libmx:libmx.dll
 0000:00000000       .debug$S                   0000000180000000     libmx:libmx.dll
 0000:00000000       .debug$S                   0000000180000000     libmx:libmx.dll
 0000:00000000       .debug$S                   0000000180000000     libut:libut.dll
 0000:00000000       .debug$S                   0000000180000000     libut:libut.dll
 0000:00000000       .debug$S                   0000000180000000     sf_runtime:sf_runtime.dll
 0000:00000000       .debug$S                   0000000180000000     sf_runtime:sf_runtime.dll
 0000:00000000       .debug$S                   0000000180000000     sf_runtime:sf_runtime.dll
 0000:00000000       .debug$S                   0000000180000000     sf_runtime:sf_runtime.dll
 0000:00000000       .debug$S                   0000000180000000     sf_runtime:sf_runtime.dll
 0000:00000000       .debug$S                   0000000180000000     sf_runtime:sf_runtime.dll
 0000:00000000       .debug$S                   0000000180000000     sf_runtime:sf_runtime.dll
 0000:00000000       .debug$S                   0000000180000000     sf_runtime:sf_runtime.dll
 0000:00000000       .debug$S                   0000000180000000     sf_runtime:sf_runtime.dll
 0000:00000000       .debug$S                   0000000180000000     sf_runtime:sf_runtime.dll
 0000:00000000       .debug$S                   0000000180000000     sf_runtime:sf_runtime.dll
 0000:00000000       .debug$S                   0000000180000000     sf_runtime:sf_runtime.dll
 0000:00000000       .debug$S                   0000000180000000     sf_runtime:sf_runtime.dll
 0000:00000000       .debug$S                   0000000180000000     sf_runtime:sf_runtime.dll
 0000:00000000       .debug$S                   0000000180000000     sf_runtime:sf_runtime.dll
 0000:00000000       .debug$S                   0000000180000000     sf_runtime:sf_runtime.dll
 0000:00000000       .debug$S                   0000000180000000     sf_runtime:sf_runtime.dll
 0000:00000000       .debug$S                   0000000180000000     sf_runtime:sf_runtime.dll
 0000:00000000       .debug$S                   0000000180000000     sf_runtime:sf_runtime.dll
 0000:00000000       .debug$S                   0000000180000000     sf_runtime:sf_runtime.dll
 0000:00000000       .debug$S                   0000000180000000     sf_runtime:sf_runtime.dll
 0000:00000000       .debug$S                   0000000180000000     sf_runtime:sf_runtime.dll
 0000:00000000       .debug$S                   0000000180000000     sf_runtime:sf_runtime.dll
 0000:00000000       .debug$S                   0000000180000000     sf_runtime:sf_runtime.dll
 0000:00000000       .debug$S                   0000000180000000     sf_runtime:sf_runtime.dll
 0000:00000000       .debug$S                   0000000180000000     sf_runtime:sf_runtime.dll
 0000:00000000       .debug$S                   0000000180000000     sf_runtime:sf_runtime.dll
 0000:00000000       .debug$S                   0000000180000000     sf_runtime:sf_runtime.dll
 0000:00000000       .debug$S                   0000000180000000     sf_runtime:sf_runtime.dll
 0000:00000000       .debug$S                   0000000180000000     sf_runtime:sf_runtime.dll
 0000:00000000       .debug$S                   0000000180000000     sf_runtime:sf_runtime.dll
 0000:00000000       .debug$S                   0000000180000000     sf_runtime:sf_runtime.dll
 0000:00000000       .debug$S                   0000000180000000     sf_runtime:sf_runtime.dll
 0000:00000000       .debug$S                   0000000180000000     sf_runtime:sf_runtime.dll
 0000:00000000       .debug$S                   0000000180000000     sf_runtime:sf_runtime.dll
 0000:00000000       .debug$S                   0000000180000000     sf_runtime:sf_runtime.dll
 0000:00000000       .debug$S                   0000000180000000     sf_runtime:sf_runtime.dll
 0000:00000000       .debug$S                   0000000180000000     sf_runtime:sf_runtime.dll
 0000:00000000       .debug$S                   0000000180000000     sf_runtime:sf_runtime.dll
 0000:00000000       .debug$S                   0000000180000000     sf_runtime:sf_runtime.dll
 0000:00000000       .debug$S                   0000000180000000     sf_runtime:sf_runtime.dll
 0000:00000000       .debug$S                   0000000180000000     G1WZrK4kHQSfLP1BLKd6ID_cclib:G1WZrK4kHQSfLP1BLKd6ID_cclib.dll
 0000:00000000       .debug$S                   0000000180000000     G1WZrK4kHQSfLP1BLKd6ID_cclib:G1WZrK4kHQSfLP1BLKd6ID_cclib.dll
 0000:00000000       .debug$S                   0000000180000000     G1WZrK4kHQSfLP1BLKd6ID_cclib:G1WZrK4kHQSfLP1BLKd6ID_cclib.dll
 0000:00000000       .debug$S                   0000000180000000     G1WZrK4kHQSfLP1BLKd6ID_cclib:G1WZrK4kHQSfLP1BLKd6ID_cclib.dll
 0000:00000000       .debug$S                   0000000180000000     G1WZrK4kHQSfLP1BLKd6ID_cclib:G1WZrK4kHQSfLP1BLKd6ID_cclib.dll
 0000:00000000       .debug$S                   0000000180000000     G1WZrK4kHQSfLP1BLKd6ID_cclib:G1WZrK4kHQSfLP1BLKd6ID_cclib.dll
 0000:00000000       .debug$S                   0000000180000000     G1WZrK4kHQSfLP1BLKd6ID_cclib:G1WZrK4kHQSfLP1BLKd6ID_cclib.dll
 0000:00000000       .debug$S                   0000000180000000     G1WZrK4kHQSfLP1BLKd6ID_cclib:G1WZrK4kHQSfLP1BLKd6ID_cclib.dll
 0000:00000000       .debug$S                   0000000180000000     G1WZrK4kHQSfLP1BLKd6ID_cclib:G1WZrK4kHQSfLP1BLKd6ID_cclib.dll
 0000:00000000       .debug$S                   0000000180000000     G1WZrK4kHQSfLP1BLKd6ID_cclib:G1WZrK4kHQSfLP1BLKd6ID_cclib.dll
 0000:00000000       .debug$S                   0000000180000000     G1WZrK4kHQSfLP1BLKd6ID_cclib:G1WZrK4kHQSfLP1BLKd6ID_cclib.dll
 0000:00000000       .debug$S                   0000000180000000     G1WZrK4kHQSfLP1BLKd6ID_cclib:G1WZrK4kHQSfLP1BLKd6ID_cclib.dll
 0000:00000000       .debug$S                   0000000180000000     G1WZrK4kHQSfLP1BLKd6ID_cclib:G1WZrK4kHQSfLP1BLKd6ID_cclib.dll
 0000:00000000       .debug$S                   0000000180000000     G1WZrK4kHQSfLP1BLKd6ID_cclib:G1WZrK4kHQSfLP1BLKd6ID_cclib.dll
 0000:00000000       .debug$S                   0000000180000000     G1WZrK4kHQSfLP1BLKd6ID_cclib:G1WZrK4kHQSfLP1BLKd6ID_cclib.dll
 0000:00000000       .debug$S                   0000000180000000     G1WZrK4kHQSfLP1BLKd6ID_cclib:G1WZrK4kHQSfLP1BLKd6ID_cclib.dll
 0000:00000000       .debug$S                   0000000180000000     G1WZrK4kHQSfLP1BLKd6ID_cclib:G1WZrK4kHQSfLP1BLKd6ID_cclib.dll
 0000:00000000       .debug$S                   0000000180000000     G1WZrK4kHQSfLP1BLKd6ID_cclib:G1WZrK4kHQSfLP1BLKd6ID_cclib.dll
 0000:00000000       .debug$S                   0000000180000000     G1WZrK4kHQSfLP1BLKd6ID_cclib:G1WZrK4kHQSfLP1BLKd6ID_cclib.dll
 0000:00000000       .debug$S                   0000000180000000     G1WZrK4kHQSfLP1BLKd6ID_cclib:G1WZrK4kHQSfLP1BLKd6ID_cclib.dll
 0000:00000000       .debug$S                   0000000180000000     ucrt:api-ms-win-crt-heap-l1-1-0.dll
 0000:00000000       .debug$S                   0000000180000000     ucrt:api-ms-win-crt-heap-l1-1-0.dll
 0000:00000000       .debug$S                   0000000180000000     ucrt:api-ms-win-crt-runtime-l1-1-0.dll
 0000:00000000       .debug$S                   0000000180000000     ucrt:api-ms-win-crt-runtime-l1-1-0.dll
 0000:00000000       .debug$S                   0000000180000000     ucrt:api-ms-win-crt-runtime-l1-1-0.dll
 0000:00000000       .debug$S                   0000000180000000     ucrt:api-ms-win-crt-runtime-l1-1-0.dll
 0000:00000000       .debug$S                   0000000180000000     ucrt:api-ms-win-crt-runtime-l1-1-0.dll
 0000:00000000       .debug$S                   0000000180000000     ucrt:api-ms-win-crt-runtime-l1-1-0.dll
 0000:00000000       .debug$S                   0000000180000000     ucrt:api-ms-win-crt-runtime-l1-1-0.dll
 0000:00000000       .debug$S                   0000000180000000     ucrt:api-ms-win-crt-runtime-l1-1-0.dll
 0000:00000000       .debug$S                   0000000180000000     ucrt:api-ms-win-crt-runtime-l1-1-0.dll
 0000:00000000       .debug$S                   0000000180000000     ucrt:api-ms-win-crt-runtime-l1-1-0.dll
 0000:00000000       .debug$S                   0000000180000000     ucrt:api-ms-win-crt-runtime-l1-1-0.dll
 0000:00000000       .debug$S                   0000000180000000     ucrt:api-ms-win-crt-runtime-l1-1-0.dll
 0000:00000000       .debug$S                   0000000180000000     ucrt:api-ms-win-crt-stdio-l1-1-0.dll
 0000:00000000       .debug$S                   0000000180000000     ucrt:api-ms-win-crt-string-l1-1-0.dll
 0000:00000000       .debug$S                   0000000180000000     ucrt:api-ms-win-crt-string-l1-1-0.dll
 0000:00000000       .debug$S                   0000000180000000     ucrt:api-ms-win-crt-string-l1-1-0.dll
 0000:00000000       .debug$S                   0000000180000000     kernel32:KERNEL32.dll
 0000:00000000       .debug$S                   0000000180000000     kernel32:KERNEL32.dll
 0000:00000000       .debug$S                   0000000180000000     kernel32:KERNEL32.dll
 0000:00000000       .debug$S                   0000000180000000     kernel32:KERNEL32.dll
 0000:00000000       .debug$S                   0000000180000000     kernel32:KERNEL32.dll
 0000:00000000       .debug$S                   0000000180000000     kernel32:KERNEL32.dll
 0000:00000000       .debug$S                   0000000180000000     kernel32:KERNEL32.dll
 0000:00000000       .debug$S                   0000000180000000     kernel32:KERNEL32.dll
 0000:00000000       .debug$S                   0000000180000000     kernel32:KERNEL32.dll
 0000:00000000       .debug$S                   0000000180000000     kernel32:KERNEL32.dll
 0000:00000000       .debug$S                   0000000180000000     kernel32:KERNEL32.dll
 0000:00000000       .debug$S                   0000000180000000     kernel32:KERNEL32.dll
 0000:00000000       .debug$S                   0000000180000000     kernel32:KERNEL32.dll
 0000:00000000       .debug$S                   0000000180000000     kernel32:KERNEL32.dll
 0000:00000000       .debug$S                   0000000180000000     kernel32:KERNEL32.dll
 0000:00000000       .debug$S                   0000000180000000     kernel32:KERNEL32.dll
 0000:00000000       .debug$S                   0000000180000000     kernel32:KERNEL32.dll
 0001:000032a8       $LN180                     00000001800042a8     Fuel_Pump_V3_1_20201113_20KHz_sfun_registry.obj
 0001:00004094       $LN17                      0000000180005094     Fuel_Pump_V3_1_20201113_20KHz_sfun_registry.obj
 0001:00004794       $LN26                      0000000180005794     Fuel_Pump_V3_1_20201113_20KHz_sfun_registry.obj
 0001:00004e74       $LN23                      0000000180005e74     Fuel_Pump_V3_1_20201113_20KHz_sfun_registry.obj
 0001:00005a2c       $LN26                      0000000180006a2c     Fuel_Pump_V3_1_20201113_20KHz_sfun_registry.obj
 0001:000087c0       ProcessMexSfunctionCmdLineCall 00000001800097c0 f   Fuel_Pump_V3_1_20201113_20KHz_sfun_registry.obj
 0001:00008b40       mdlSetWorkWidths           0000000180009b40 f   Fuel_Pump_V3_1_20201113_20KHz_sfun_registry.obj
 0001:00008b90       mdlProcessParameters       0000000180009b90 f   Fuel_Pump_V3_1_20201113_20KHz_sfun_registry.obj
 0001:00008bc0       mdl_start_processing       0000000180009bc0 f   Fuel_Pump_V3_1_20201113_20KHz_sfun_registry.obj
 0001:00008c20       mdl_terminate_processing   0000000180009c20 f   Fuel_Pump_V3_1_20201113_20KHz_sfun_registry.obj
 0001:00008ce0       mdlStart                   0000000180009ce0 f   Fuel_Pump_V3_1_20201113_20KHz_sfun_registry.obj
 0001:00008d10       mdlTerminate               0000000180009d10 f   Fuel_Pump_V3_1_20201113_20KHz_sfun_registry.obj
 0001:00008d40       mdlInitializeSizes         0000000180009d40 f   Fuel_Pump_V3_1_20201113_20KHz_sfun_registry.obj
 0001:00008d70       mdlInitializeSampleTimes   0000000180009d70 f   Fuel_Pump_V3_1_20201113_20KHz_sfun_registry.obj
 0001:00008da0       mdl_outputs_continuous_legacy 0000000180009da0 f   Fuel_Pump_V3_1_20201113_20KHz_sfun_registry.obj
 0001:00008ea0       mdl_outputs_processing     0000000180009ea0 f   Fuel_Pump_V3_1_20201113_20KHz_sfun_registry.obj
 0001:00008fc0       mdl_zeroCrossings_processing 0000000180009fc0 f   Fuel_Pump_V3_1_20201113_20KHz_sfun_registry.obj
 0001:00009000       mdlZeroCrossings           000000018000a000 f   Fuel_Pump_V3_1_20201113_20KHz_sfun_registry.obj
 0001:00009030       mdl_derivatives_processing 000000018000a030 f   Fuel_Pump_V3_1_20201113_20KHz_sfun_registry.obj
 0001:00009080       mdlDerivatives             000000018000a080 f   Fuel_Pump_V3_1_20201113_20KHz_sfun_registry.obj
 0001:000090b0       mdl_initialize_conditions_processing 000000018000a0b0 f   Fuel_Pump_V3_1_20201113_20KHz_sfun_registry.obj
 0001:00009100       mdlInitializeConditions    000000018000a100 f   Fuel_Pump_V3_1_20201113_20KHz_sfun_registry.obj
 0001:00009130       mdl_ext_mode_exec_processing 000000018000a130 f   Fuel_Pump_V3_1_20201113_20KHz_sfun_registry.obj
 0001:00009170       mdlExtModeExec             000000018000a170 f   Fuel_Pump_V3_1_20201113_20KHz_sfun_registry.obj
 0001:000091a0       mdlRTW                     000000018000a1a0 f   Fuel_Pump_V3_1_20201113_20KHz_sfun_registry.obj
 0001:000091e0       mdl_enable_processing      000000018000a1e0 f   Fuel_Pump_V3_1_20201113_20KHz_sfun_registry.obj
 0001:00009220       mdlEnable                  000000018000a220 f   Fuel_Pump_V3_1_20201113_20KHz_sfun_registry.obj
 0001:00009250       mdl_disable_processing     000000018000a250 f   Fuel_Pump_V3_1_20201113_20KHz_sfun_registry.obj
 0001:00009290       mdlDisable                 000000018000a290 f   Fuel_Pump_V3_1_20201113_20KHz_sfun_registry.obj
 0001:000092c0       mdlOutputs                 000000018000a2c0 f   Fuel_Pump_V3_1_20201113_20KHz_sfun_registry.obj
 0001:000092f0       mdl_update_processing      000000018000a2f0 f   Fuel_Pump_V3_1_20201113_20KHz_sfun_registry.obj
 0001:00009340       mdlUpdate                  000000018000a340 f   Fuel_Pump_V3_1_20201113_20KHz_sfun_registry.obj
 0001:00009520       mdlGetTimeOfNextVarHit     000000018000a520 f   Fuel_Pump_V3_1_20201113_20KHz_sfun_registry.obj
 0001:00009570       _RegNumInputPortsCB        000000018000a570 f   Fuel_Pump_V3_1_20201113_20KHz_sfun_registry.obj
 0001:000095f0       _RegNumOutputPortsCB       000000018000a5f0 f   Fuel_Pump_V3_1_20201113_20KHz_sfun_registry.obj
 0001:00009670       _CreateSimStruct           000000018000a670 f   Fuel_Pump_V3_1_20201113_20KHz_sfun_registry.obj
 0001:00009870       _ProcessMexSfunctionCmdLineCall 000000018000a870 f   Fuel_Pump_V3_1_20201113_20KHz_sfun_registry.obj
 0001:0000a2b0       ReportIndexOutOfBoundsError 000000018000b2b0 f   Fuel_Pump_V3_1_20201113_20KHz_sfun_registry.obj
 0001:0000b630       initialize_c28_canblocks_extras 000000018000c630 f   canblocks_extras_sfun:c28_canblocks_extras.obj
 0001:0000b9a0       initialize_params_c28_canblocks_extras 000000018000c9a0 f   canblocks_extras_sfun:c28_canblocks_extras.obj
 0001:0000c320       enable_c28_canblocks_extras 000000018000d320 f   canblocks_extras_sfun:c28_canblocks_extras.obj
 0001:0000c350       disable_c28_canblocks_extras 000000018000d350 f   canblocks_extras_sfun:c28_canblocks_extras.obj
 0001:0000c380       c28_update_jit_animation_state_c28_canblocks_extras 000000018000d380 f   canblocks_extras_sfun:c28_canblocks_extras.obj
 0001:0000c440       c28_do_animation_call_c28_canblocks_extras 000000018000d440 f   canblocks_extras_sfun:c28_canblocks_extras.obj
 0001:0000c480       get_sim_state_c28_canblocks_extras 000000018000d480 f   canblocks_extras_sfun:c28_canblocks_extras.obj
 0001:0000c650       set_sim_state_c28_canblocks_extras 000000018000d650 f   canblocks_extras_sfun:c28_canblocks_extras.obj
 0001:0000c790       c28_set_sim_state_side_effects_c28_canblocks_extras 000000018000d790 f   canblocks_extras_sfun:c28_canblocks_extras.obj
 0001:0000c7c0       finalize_c28_canblocks_extras 000000018000d7c0 f   canblocks_extras_sfun:c28_canblocks_extras.obj
 0001:0000c810       sf_gateway_c28_canblocks_extras 000000018000d810 f   canblocks_extras_sfun:c28_canblocks_extras.obj
 0001:0000e520       mdl_start_c28_canblocks_extras 000000018000f520 f   canblocks_extras_sfun:c28_canblocks_extras.obj
 0001:000101e0       initSimStructsc28_canblocks_extras 00000001800111e0 f   canblocks_extras_sfun:c28_canblocks_extras.obj
 0001:000101f0       c28_Connected              00000001800111f0 f   canblocks_extras_sfun:c28_canblocks_extras.obj
 0001:000133a0       c28_tx_dto                 00000001800143a0 f   canblocks_extras_sfun:c28_canblocks_extras.obj
 0001:00014f30       c28_emlrt_marshallIn       0000000180015f30 f   canblocks_extras_sfun:c28_canblocks_extras.obj
 0001:00014fa0       c28_b_emlrt_marshallIn     0000000180015fa0 f   canblocks_extras_sfun:c28_canblocks_extras.obj
 0001:00015030       c28_c_emlrt_marshallIn     0000000180016030 f   canblocks_extras_sfun:c28_canblocks_extras.obj
 0001:000150c0       c28_d_emlrt_marshallIn     00000001800160c0 f   canblocks_extras_sfun:c28_canblocks_extras.obj
 0001:00015120       c28_chart_data_browse_helper 0000000180016120 f   canblocks_extras_sfun:c28_canblocks_extras.obj
 0001:00015af8       $LN35                      0000000180016af8     canblocks_extras_sfun:c28_canblocks_extras.obj
 0001:00015b80       c28_slcc_cov_call_setSlave_Version_G1WZrK4kHQSfLP1BLKd6ID_by_sim 0000000180016b80 f   canblocks_extras_sfun:c28_canblocks_extras.obj
 0001:00015bc0       c28_slcc_cov_call_setStation_Address_G1WZrK4kHQSfLP1BLKd6ID_by_s 0000000180016bc0 f   canblocks_extras_sfun:c28_canblocks_extras.obj
 0001:00015c00       c28_slcc_cov_call_setCurrent_State_G1WZrK4kHQSfLP1BLKd6ID_by_sim 0000000180016c00 f   canblocks_extras_sfun:c28_canblocks_extras.obj
 0001:00015c30       c28_slcc_cov_call_c_reset_all_DAQ_lists_G1WZrK4kHQSfLP1BLKd6ID_b 0000000180016c30 f   canblocks_extras_sfun:c28_canblocks_extras.obj
 0001:00015c60       c28_slcc_cov_call_getStation_Address_G1WZrK4kHQSfLP1BLKd6ID_by_s 0000000180016c60 f   canblocks_extras_sfun:c28_canblocks_extras.obj
 0001:00015ca0       c28_slcc_cov_call_setHandled_G1WZrK4kHQSfLP1BLKd6ID_by_simstruct 0000000180016ca0 f   canblocks_extras_sfun:c28_canblocks_extras.obj
 0001:00015cd0       c28_slcc_cov_call_setMaster_Version_G1WZrK4kHQSfLP1BLKd6ID_by_si 0000000180016cd0 f   canblocks_extras_sfun:c28_canblocks_extras.obj
 0001:00015d10       c28_slcc_cov_call_getMTAPtr_G1WZrK4kHQSfLP1BLKd6ID_by_simstruct 0000000180016d10 f   canblocks_extras_sfun:c28_canblocks_extras.obj
 0001:00015d50       c28_slcc_cov_call_c_write_uint8s_G1WZrK4kHQSfLP1BLKd6ID_by_simst 0000000180016d50 f   canblocks_extras_sfun:c28_canblocks_extras.obj
 0001:00015da0       c28_slcc_cov_call_c_set_element_pointer_G1WZrK4kHQSfLP1BLKd6ID_b 0000000180016da0 f   canblocks_extras_sfun:c28_canblocks_extras.obj
 0001:00015df0       c28_slcc_cov_call_c_start_stop_all_G1WZrK4kHQSfLP1BLKd6ID_by_sim 0000000180016df0 f   canblocks_extras_sfun:c28_canblocks_extras.obj
 0001:00015e20       c28_slcc_cov_call_c_start_stop_G1WZrK4kHQSfLP1BLKd6ID_by_simstru 0000000180016e20 f   canblocks_extras_sfun:c28_canblocks_extras.obj
 0001:00015e80       c28_slcc_cov_call_setS_Status_G1WZrK4kHQSfLP1BLKd6ID_by_simstruc 0000000180016e80 f   canblocks_extras_sfun:c28_canblocks_extras.obj
 0001:00015eb0       c28_slcc_cov_call_c_write_daq_G1WZrK4kHQSfLP1BLKd6ID_by_simstruc 0000000180016eb0 f   canblocks_extras_sfun:c28_canblocks_extras.obj
 0001:00015ef0       c28_slcc_cov_call_setData_G1WZrK4kHQSfLP1BLKd6ID_by_simstruct 0000000180016ef0 f   canblocks_extras_sfun:c28_canblocks_extras.obj
 0001:00015f30       c28_slcc_cov_call_getSlave_Version_G1WZrK4kHQSfLP1BLKd6ID_by_sim 0000000180016f30 f   canblocks_extras_sfun:c28_canblocks_extras.obj
 0001:00015f70       c28_slcc_cov_call_getDataPtr_G1WZrK4kHQSfLP1BLKd6ID_by_simstruct 0000000180016f70 f   canblocks_extras_sfun:c28_canblocks_extras.obj
 0001:00015fb0       c28_slcc_cov_call_c_read_uint8s_G1WZrK4kHQSfLP1BLKd6ID_by_simstr 0000000180016fb0 f   canblocks_extras_sfun:c28_canblocks_extras.obj
 0001:00016000       c28_slcc_cov_call_c_init_daq_list_G1WZrK4kHQSfLP1BLKd6ID_by_sims 0000000180017000 f   canblocks_extras_sfun:c28_canblocks_extras.obj
 0001:00016030       c28_slcc_cov_call_getS_Status_G1WZrK4kHQSfLP1BLKd6ID_by_simstruc 0000000180017030 f   canblocks_extras_sfun:c28_canblocks_extras.obj
 0001:00016060       c28__u8_u16_               0000000180017060 f   canblocks_extras_sfun:c28_canblocks_extras.obj
 0001:000160c0       init_dsm_address_info      00000001800170c0 f   canblocks_extras_sfun:c28_canblocks_extras.obj
 0001:000160d0       init_simulink_io_address   00000001800170d0 f   canblocks_extras_sfun:c28_canblocks_extras.obj
 0001:00016360       sf_get_sim_state_info_c28_canblocks_extras 0000000180017360 f   canblocks_extras_sfun:c28_canblocks_extras.obj
 0001:00016420       sf_opaque_initialize_c28_canblocks_extras 0000000180017420 f   canblocks_extras_sfun:c28_canblocks_extras.obj
 0001:00016450       sf_opaque_enable_c28_canblocks_extras 0000000180017450 f   canblocks_extras_sfun:c28_canblocks_extras.obj
 0001:00016470       sf_opaque_disable_c28_canblocks_extras 0000000180017470 f   canblocks_extras_sfun:c28_canblocks_extras.obj
 0001:00016490       sf_opaque_gateway_c28_canblocks_extras 0000000180017490 f   canblocks_extras_sfun:c28_canblocks_extras.obj
 0001:000164b0       sf_opaque_get_sim_state_c28_canblocks_extras 00000001800174b0 f   canblocks_extras_sfun:c28_canblocks_extras.obj
 0001:000164e0       sf_opaque_set_sim_state_c28_canblocks_extras 00000001800174e0 f   canblocks_extras_sfun:c28_canblocks_extras.obj
 0001:00016510       sf_opaque_terminate_c28_canblocks_extras 0000000180017510 f   canblocks_extras_sfun:c28_canblocks_extras.obj
 0001:000165b0       mdlProcessParameters_c28_canblocks_extras 00000001800175b0 f   canblocks_extras_sfun:c28_canblocks_extras.obj
 0001:000168c0       mdlSetWorkWidths_c28_canblocks_extras 00000001800178c0 f   canblocks_extras_sfun:c28_canblocks_extras.obj
 0001:00016950       mdlRTW_c28_canblocks_extras 0000000180017950 f   canblocks_extras_sfun:c28_canblocks_extras.obj
 0001:00016990       mdlStart_c28_canblocks_extras 0000000180017990 f   canblocks_extras_sfun:c28_canblocks_extras.obj
 0001:00017098       capture_current_context    0000000180018098 f   MSVCRT:gs_report.obj
 0001:00017108       capture_previous_context   0000000180018108 f   MSVCRT:gs_report.obj
 0001:00017200       $$000000                   0000000180018200     MSVCRT:amdsecgs.obj
 0001:00017234       ?dllmain_crt_dispatch@@YAHQEAUHINSTANCE__@@KQEAX@Z 0000000180018234 f   MSVCRT:dll_dllmain.obj
 0001:00017284       ?dllmain_crt_process_attach@@YAHQEAUHINSTANCE__@@QEAX@Z 0000000180018284 f   MSVCRT:dll_dllmain.obj
 0001:0001739c       ?dllmain_crt_process_detach@@YAH_N@Z 000000018001839c f   MSVCRT:dll_dllmain.obj
 0001:00017420       ?dllmain_dispatch@@YAHQEAUHINSTANCE__@@KQEAX@Z 0000000180018420 f   MSVCRT:dll_dllmain.obj
 0001:00017554       ?dllmain_raw@@YAHQEAUHINSTANCE__@@KQEAX@Z 0000000180018554 f   MSVCRT:dll_dllmain.obj
 0001:000175b8       __get_entropy              00000001800185b8 f   MSVCRT:gs_support.obj
 0001:00017748       ?find_pe_section@@YAPEAU_IMAGE_SECTION_HEADER@@QEAE_K@Z 0000000180018748 f   MSVCRT:utility.obj
 0001:0001779c       ?is_potentially_valid_image_base@@YA_NQEAX@Z 000000018001879c f   MSVCRT:utility.obj
 0001:000181d0       $$000000                   00000001800191d0     MSVCRT:guard_dispatch.obj
 0001:000181e2       ?fin$0@?0??dllmain_crt_process_attach@@YAHQEAUHINSTANCE__@@QEAX@Z@4HA 00000001800191e2 f   MSVCRT:dll_dllmain.obj
 0001:000181f9       ?fin$0@?0??dllmain_crt_process_detach@@YAH_N@Z@4HA 00000001800191f9 f   MSVCRT:dll_dllmain.obj
 0001:00018212       ?fin$1@?0??dllmain_crt_process_detach@@YAH_N@Z@4HA 0000000180019212 f   MSVCRT:dll_dllmain.obj
 0001:00018226       ?filt$0@?0??dllmain_dispatch@@YAHQEAUHINSTANCE__@@KQEAX@Z@4HA 0000000180019226 f   MSVCRT:dll_dllmain.obj
 0001:0001825c       __scrt_is_nonwritable_in_current_image$filt$0 000000018001925c f   MSVCRT:utility.obj
 0002:000005d8       ?c28_decisionTxtStartIdx@?1??mdl_start_c28_canblocks_extras@@9@9 000000018001a5d8     canblocks_extras_sfun:c28_canblocks_extras.obj
 0002:000005dc       ?c28_decisionTxtEndIdx@?1??mdl_start_c28_canblocks_extras@@9@9 000000018001a5dc     canblocks_extras_sfun:c28_canblocks_extras.obj
 0002:000005e0       ?c28_b_decisionTxtStartIdx@?1??mdl_start_c28_canblocks_extras@@9@9 000000018001a5e0     canblocks_extras_sfun:c28_canblocks_extras.obj
 0002:000005e4       ?c28_b_decisionTxtEndIdx@?1??mdl_start_c28_canblocks_extras@@9@9 000000018001a5e4     canblocks_extras_sfun:c28_canblocks_extras.obj
 0002:000005e8       ?c28_c_decisionTxtStartIdx@?1??mdl_start_c28_canblocks_extras@@9@9 000000018001a5e8     canblocks_extras_sfun:c28_canblocks_extras.obj
 0002:000005ec       ?c28_c_decisionTxtEndIdx@?1??mdl_start_c28_canblocks_extras@@9@9 000000018001a5ec     canblocks_extras_sfun:c28_canblocks_extras.obj
 0002:000005f0       ?c28_d_decisionTxtStartIdx@?1??mdl_start_c28_canblocks_extras@@9@9 000000018001a5f0     canblocks_extras_sfun:c28_canblocks_extras.obj
 0002:000005f4       ?c28_d_decisionTxtEndIdx@?1??mdl_start_c28_canblocks_extras@@9@9 000000018001a5f4     canblocks_extras_sfun:c28_canblocks_extras.obj
 0002:000005f8       ?c28_e_decisionTxtStartIdx@?1??mdl_start_c28_canblocks_extras@@9@9 000000018001a5f8     canblocks_extras_sfun:c28_canblocks_extras.obj
 0002:000005fc       ?c28_e_decisionTxtEndIdx@?1??mdl_start_c28_canblocks_extras@@9@9 000000018001a5fc     canblocks_extras_sfun:c28_canblocks_extras.obj
 0002:00000600       ?c28_f_decisionTxtStartIdx@?1??mdl_start_c28_canblocks_extras@@9@9 000000018001a600     canblocks_extras_sfun:c28_canblocks_extras.obj
 0002:00000604       ?c28_f_decisionTxtEndIdx@?1??mdl_start_c28_canblocks_extras@@9@9 000000018001a604     canblocks_extras_sfun:c28_canblocks_extras.obj
 0002:00000608       ?c28_g_decisionTxtStartIdx@?1??mdl_start_c28_canblocks_extras@@9@9 000000018001a608     canblocks_extras_sfun:c28_canblocks_extras.obj
 0002:0000060c       ?c28_g_decisionTxtEndIdx@?1??mdl_start_c28_canblocks_extras@@9@9 000000018001a60c     canblocks_extras_sfun:c28_canblocks_extras.obj
 0002:00000610       ?c28_h_decisionTxtStartIdx@?1??mdl_start_c28_canblocks_extras@@9@9 000000018001a610     canblocks_extras_sfun:c28_canblocks_extras.obj
 0002:00000614       ?c28_h_decisionTxtEndIdx@?1??mdl_start_c28_canblocks_extras@@9@9 000000018001a614     canblocks_extras_sfun:c28_canblocks_extras.obj
 0002:00000618       ?c28_i_decisionTxtStartIdx@?1??mdl_start_c28_canblocks_extras@@9@9 000000018001a618     canblocks_extras_sfun:c28_canblocks_extras.obj
 0002:0000061c       ?c28_i_decisionTxtEndIdx@?1??mdl_start_c28_canblocks_extras@@9@9 000000018001a61c     canblocks_extras_sfun:c28_canblocks_extras.obj
 0002:00000620       ?c28_transitionTxtStartIdx@?1??mdl_start_c28_canblocks_extras@@9@9 000000018001a620     canblocks_extras_sfun:c28_canblocks_extras.obj
 0002:0000062c       ?c28_b_transitionTxtStartIdx@?1??mdl_start_c28_canblocks_extras@@9@9 000000018001a62c     canblocks_extras_sfun:c28_canblocks_extras.obj
 0002:00000630       ?c28_transitionTxtEndIdx@?1??mdl_start_c28_canblocks_extras@@9@9 000000018001a630     canblocks_extras_sfun:c28_canblocks_extras.obj
 0002:0000063c       ?c28_b_transitionTxtEndIdx@?1??mdl_start_c28_canblocks_extras@@9@9 000000018001a63c     canblocks_extras_sfun:c28_canblocks_extras.obj
 0002:00000640       ?c28_postfixPredicateTree@?1??mdl_start_c28_canblocks_extras@@9@9 000000018001a640     canblocks_extras_sfun:c28_canblocks_extras.obj
 0002:00000654       ?c28_b_postfixPredicateTree@?1??mdl_start_c28_canblocks_extras@@9@9 000000018001a654     canblocks_extras_sfun:c28_canblocks_extras.obj
 0002:00000658       ?c28_relopTxtStartIdx@?1??mdl_start_c28_canblocks_extras@@9@9 000000018001a658     canblocks_extras_sfun:c28_canblocks_extras.obj
 0002:00000660       ?c28_relopTxtEndIdx@?1??mdl_start_c28_canblocks_extras@@9@9 000000018001a660     canblocks_extras_sfun:c28_canblocks_extras.obj
 0002:00000668       ?c28_relationalopEps@?1??mdl_start_c28_canblocks_extras@@9@9 000000018001a668     canblocks_extras_sfun:c28_canblocks_extras.obj
 0002:00000670       ?c28_relationalopType@?1??mdl_start_c28_canblocks_extras@@9@9 000000018001a670     canblocks_extras_sfun:c28_canblocks_extras.obj
 0002:00000680       ?c28_b_relopTxtStartIdx@?1??mdl_start_c28_canblocks_extras@@9@9 000000018001a680     canblocks_extras_sfun:c28_canblocks_extras.obj
 0002:00000684       ?c28_b_relopTxtEndIdx@?1??mdl_start_c28_canblocks_extras@@9@9 000000018001a684     canblocks_extras_sfun:c28_canblocks_extras.obj
 0002:00000688       ?c28_b_relationalopEps@?1??mdl_start_c28_canblocks_extras@@9@9 000000018001a688     canblocks_extras_sfun:c28_canblocks_extras.obj
 0002:0000068c       ?c28_r_transitionTxtStartIdx@?1??mdl_start_c28_canblocks_extras@@9@9 000000018001a68c     canblocks_extras_sfun:c28_canblocks_extras.obj
 0002:00000690       ?c28_b_relationalopType@?1??mdl_start_c28_canblocks_extras@@9@9 000000018001a690     canblocks_extras_sfun:c28_canblocks_extras.obj
 0002:00000698       ?c28_c_transitionTxtStartIdx@?1??mdl_start_c28_canblocks_extras@@9@9 000000018001a698     canblocks_extras_sfun:c28_canblocks_extras.obj
 0002:000006a4       ?c28_r_transitionTxtEndIdx@?1??mdl_start_c28_canblocks_extras@@9@9 000000018001a6a4     canblocks_extras_sfun:c28_canblocks_extras.obj
 0002:000006a8       ?c28_c_transitionTxtEndIdx@?1??mdl_start_c28_canblocks_extras@@9@9 000000018001a6a8     canblocks_extras_sfun:c28_canblocks_extras.obj
 0002:000006b4       ?c28_r_postfixPredicateTree@?1??mdl_start_c28_canblocks_extras@@9@9 000000018001a6b4     canblocks_extras_sfun:c28_canblocks_extras.obj
 0002:000006b8       ?c28_c_postfixPredicateTree@?1??mdl_start_c28_canblocks_extras@@9@9 000000018001a6b8     canblocks_extras_sfun:c28_canblocks_extras.obj
 0002:000006cc       ?c28_t_transitionTxtStartIdx@?1??mdl_start_c28_canblocks_extras@@9@9 000000018001a6cc     canblocks_extras_sfun:c28_canblocks_extras.obj
 0002:000006d0       ?c28_c_relopTxtStartIdx@?1??mdl_start_c28_canblocks_extras@@9@9 000000018001a6d0     canblocks_extras_sfun:c28_canblocks_extras.obj
 0002:000006d8       ?c28_c_relopTxtEndIdx@?1??mdl_start_c28_canblocks_extras@@9@9 000000018001a6d8     canblocks_extras_sfun:c28_canblocks_extras.obj
 0002:000006e0       ?c28_c_relationalopEps@?1??mdl_start_c28_canblocks_extras@@9@9 000000018001a6e0     canblocks_extras_sfun:c28_canblocks_extras.obj
 0002:000006e8       ?c28_c_relationalopType@?1??mdl_start_c28_canblocks_extras@@9@9 000000018001a6e8     canblocks_extras_sfun:c28_canblocks_extras.obj
 0002:000006f8       ?c28_d_transitionTxtStartIdx@?1??mdl_start_c28_canblocks_extras@@9@9 000000018001a6f8     canblocks_extras_sfun:c28_canblocks_extras.obj
 0002:00000700       ?c28_d_transitionTxtEndIdx@?1??mdl_start_c28_canblocks_extras@@9@9 000000018001a700     canblocks_extras_sfun:c28_canblocks_extras.obj
 0002:00000708       ?c28_d_postfixPredicateTree@?1??mdl_start_c28_canblocks_extras@@9@9 000000018001a708     canblocks_extras_sfun:c28_canblocks_extras.obj
 0002:00000714       ?c28_t_transitionTxtEndIdx@?1??mdl_start_c28_canblocks_extras@@9@9 000000018001a714     canblocks_extras_sfun:c28_canblocks_extras.obj
 0002:00000718       ?c28_e_transitionTxtStartIdx@?1??mdl_start_c28_canblocks_extras@@9@9 000000018001a718     canblocks_extras_sfun:c28_canblocks_extras.obj
 0002:00000720       ?c28_e_transitionTxtEndIdx@?1??mdl_start_c28_canblocks_extras@@9@9 000000018001a720     canblocks_extras_sfun:c28_canblocks_extras.obj
 0002:00000728       ?c28_e_postfixPredicateTree@?1??mdl_start_c28_canblocks_extras@@9@9 000000018001a728     canblocks_extras_sfun:c28_canblocks_extras.obj
 0002:00000734       ?c28_t_postfixPredicateTree@?1??mdl_start_c28_canblocks_extras@@9@9 000000018001a734     canblocks_extras_sfun:c28_canblocks_extras.obj
 0002:00000738       ?c28_f_transitionTxtStartIdx@?1??mdl_start_c28_canblocks_extras@@9@9 000000018001a738     canblocks_extras_sfun:c28_canblocks_extras.obj
 0002:00000740       ?c28_f_transitionTxtEndIdx@?1??mdl_start_c28_canblocks_extras@@9@9 000000018001a740     canblocks_extras_sfun:c28_canblocks_extras.obj
 0002:00000748       ?c28_f_postfixPredicateTree@?1??mdl_start_c28_canblocks_extras@@9@9 000000018001a748     canblocks_extras_sfun:c28_canblocks_extras.obj
 0002:00000754       ?c28_v_transitionTxtStartIdx@?1??mdl_start_c28_canblocks_extras@@9@9 000000018001a754     canblocks_extras_sfun:c28_canblocks_extras.obj
 0002:00000758       ?c28_g_transitionTxtStartIdx@?1??mdl_start_c28_canblocks_extras@@9@9 000000018001a758     canblocks_extras_sfun:c28_canblocks_extras.obj
 0002:00000760       ?c28_g_transitionTxtEndIdx@?1??mdl_start_c28_canblocks_extras@@9@9 000000018001a760     canblocks_extras_sfun:c28_canblocks_extras.obj
 0002:00000768       ?c28_g_postfixPredicateTree@?1??mdl_start_c28_canblocks_extras@@9@9 000000018001a768     canblocks_extras_sfun:c28_canblocks_extras.obj
 0002:00000774       ?c28_v_transitionTxtEndIdx@?1??mdl_start_c28_canblocks_extras@@9@9 000000018001a774     canblocks_extras_sfun:c28_canblocks_extras.obj
 0002:00000778       ?c28_h_transitionTxtStartIdx@?1??mdl_start_c28_canblocks_extras@@9@9 000000018001a778     canblocks_extras_sfun:c28_canblocks_extras.obj
 0002:00000780       ?c28_h_transitionTxtEndIdx@?1??mdl_start_c28_canblocks_extras@@9@9 000000018001a780     canblocks_extras_sfun:c28_canblocks_extras.obj
 0002:00000788       ?c28_h_postfixPredicateTree@?1??mdl_start_c28_canblocks_extras@@9@9 000000018001a788     canblocks_extras_sfun:c28_canblocks_extras.obj
 0002:00000794       ?c28_v_postfixPredicateTree@?1??mdl_start_c28_canblocks_extras@@9@9 000000018001a794     canblocks_extras_sfun:c28_canblocks_extras.obj
 0002:00000798       ?c28_i_transitionTxtStartIdx@?1??mdl_start_c28_canblocks_extras@@9@9 000000018001a798     canblocks_extras_sfun:c28_canblocks_extras.obj
 0002:000007a0       ?c28_i_transitionTxtEndIdx@?1??mdl_start_c28_canblocks_extras@@9@9 000000018001a7a0     canblocks_extras_sfun:c28_canblocks_extras.obj
 0002:000007a8       ?c28_i_postfixPredicateTree@?1??mdl_start_c28_canblocks_extras@@9@9 000000018001a7a8     canblocks_extras_sfun:c28_canblocks_extras.obj
 0002:000007b4       ?c28_w_transitionTxtStartIdx@?1??mdl_start_c28_canblocks_extras@@9@9 000000018001a7b4     canblocks_extras_sfun:c28_canblocks_extras.obj
 0002:000007b8       ?c28_j_transitionTxtStartIdx@?1??mdl_start_c28_canblocks_extras@@9@9 000000018001a7b8     canblocks_extras_sfun:c28_canblocks_extras.obj
 0002:000007c0       ?c28_j_transitionTxtEndIdx@?1??mdl_start_c28_canblocks_extras@@9@9 000000018001a7c0     canblocks_extras_sfun:c28_canblocks_extras.obj
 0002:000007c8       ?c28_j_postfixPredicateTree@?1??mdl_start_c28_canblocks_extras@@9@9 000000018001a7c8     canblocks_extras_sfun:c28_canblocks_extras.obj
 0002:000007d4       ?c28_w_transitionTxtEndIdx@?1??mdl_start_c28_canblocks_extras@@9@9 000000018001a7d4     canblocks_extras_sfun:c28_canblocks_extras.obj
 0002:000007d8       ?c28_k_transitionTxtStartIdx@?1??mdl_start_c28_canblocks_extras@@9@9 000000018001a7d8     canblocks_extras_sfun:c28_canblocks_extras.obj
 0002:000007e0       ?c28_k_transitionTxtEndIdx@?1??mdl_start_c28_canblocks_extras@@9@9 000000018001a7e0     canblocks_extras_sfun:c28_canblocks_extras.obj
 0002:000007e8       ?c28_k_postfixPredicateTree@?1??mdl_start_c28_canblocks_extras@@9@9 000000018001a7e8     canblocks_extras_sfun:c28_canblocks_extras.obj
 0002:000007f4       ?c28_w_postfixPredicateTree@?1??mdl_start_c28_canblocks_extras@@9@9 000000018001a7f4     canblocks_extras_sfun:c28_canblocks_extras.obj
 0002:000007f8       ?c28_l_transitionTxtStartIdx@?1??mdl_start_c28_canblocks_extras@@9@9 000000018001a7f8     canblocks_extras_sfun:c28_canblocks_extras.obj
 0002:00000800       ?c28_l_transitionTxtEndIdx@?1??mdl_start_c28_canblocks_extras@@9@9 000000018001a800     canblocks_extras_sfun:c28_canblocks_extras.obj
 0002:00000808       ?c28_l_postfixPredicateTree@?1??mdl_start_c28_canblocks_extras@@9@9 000000018001a808     canblocks_extras_sfun:c28_canblocks_extras.obj
 0002:00000814       ?c28_f_relopTxtStartIdx@?1??mdl_start_c28_canblocks_extras@@9@9 000000018001a814     canblocks_extras_sfun:c28_canblocks_extras.obj
 0002:00000818       ?c28_m_transitionTxtStartIdx@?1??mdl_start_c28_canblocks_extras@@9@9 000000018001a818     canblocks_extras_sfun:c28_canblocks_extras.obj
 0002:00000820       ?c28_m_transitionTxtEndIdx@?1??mdl_start_c28_canblocks_extras@@9@9 000000018001a820     canblocks_extras_sfun:c28_canblocks_extras.obj
 0002:00000828       ?c28_m_postfixPredicateTree@?1??mdl_start_c28_canblocks_extras@@9@9 000000018001a828     canblocks_extras_sfun:c28_canblocks_extras.obj
 0002:00000834       ?c28_f_relopTxtEndIdx@?1??mdl_start_c28_canblocks_extras@@9@9 000000018001a834     canblocks_extras_sfun:c28_canblocks_extras.obj
 0002:00000838       ?c28_n_transitionTxtStartIdx@?1??mdl_start_c28_canblocks_extras@@9@9 000000018001a838     canblocks_extras_sfun:c28_canblocks_extras.obj
 0002:00000840       ?c28_n_transitionTxtEndIdx@?1??mdl_start_c28_canblocks_extras@@9@9 000000018001a840     canblocks_extras_sfun:c28_canblocks_extras.obj
 0002:00000848       ?c28_n_postfixPredicateTree@?1??mdl_start_c28_canblocks_extras@@9@9 000000018001a848     canblocks_extras_sfun:c28_canblocks_extras.obj
 0002:00000854       ?c28_f_relationalopEps@?1??mdl_start_c28_canblocks_extras@@9@9 000000018001a854     canblocks_extras_sfun:c28_canblocks_extras.obj
 0002:00000858       ?c28_o_transitionTxtStartIdx@?1??mdl_start_c28_canblocks_extras@@9@9 000000018001a858     canblocks_extras_sfun:c28_canblocks_extras.obj
 0002:00000860       ?c28_o_transitionTxtEndIdx@?1??mdl_start_c28_canblocks_extras@@9@9 000000018001a860     canblocks_extras_sfun:c28_canblocks_extras.obj
 0002:00000868       ?c28_o_postfixPredicateTree@?1??mdl_start_c28_canblocks_extras@@9@9 000000018001a868     canblocks_extras_sfun:c28_canblocks_extras.obj
 0002:00000874       ?c28_ab_transitionTxtStartIdx@?1??mdl_start_c28_canblocks_extras@@9@9 000000018001a874     canblocks_extras_sfun:c28_canblocks_extras.obj
 0002:00000878       ?c28_p_transitionTxtStartIdx@?1??mdl_start_c28_canblocks_extras@@9@9 000000018001a878     canblocks_extras_sfun:c28_canblocks_extras.obj
 0002:00000880       ?c28_p_transitionTxtEndIdx@?1??mdl_start_c28_canblocks_extras@@9@9 000000018001a880     canblocks_extras_sfun:c28_canblocks_extras.obj
 0002:00000888       ?c28_p_postfixPredicateTree@?1??mdl_start_c28_canblocks_extras@@9@9 000000018001a888     canblocks_extras_sfun:c28_canblocks_extras.obj
 0002:00000894       ?c28_ab_transitionTxtEndIdx@?1??mdl_start_c28_canblocks_extras@@9@9 000000018001a894     canblocks_extras_sfun:c28_canblocks_extras.obj
 0002:00000898       ?c28_q_transitionTxtStartIdx@?1??mdl_start_c28_canblocks_extras@@9@9 000000018001a898     canblocks_extras_sfun:c28_canblocks_extras.obj
 0002:000008a0       ?c28_q_transitionTxtEndIdx@?1??mdl_start_c28_canblocks_extras@@9@9 000000018001a8a0     canblocks_extras_sfun:c28_canblocks_extras.obj
 0002:000008a8       ?c28_q_postfixPredicateTree@?1??mdl_start_c28_canblocks_extras@@9@9 000000018001a8a8     canblocks_extras_sfun:c28_canblocks_extras.obj
 0002:000008b4       ?c28_ab_postfixPredicateTree@?1??mdl_start_c28_canblocks_extras@@9@9 000000018001a8b4     canblocks_extras_sfun:c28_canblocks_extras.obj
 0002:000008b8       ?c28_s_transitionTxtStartIdx@?1??mdl_start_c28_canblocks_extras@@9@9 000000018001a8b8     canblocks_extras_sfun:c28_canblocks_extras.obj
 0002:000008c0       ?c28_s_transitionTxtEndIdx@?1??mdl_start_c28_canblocks_extras@@9@9 000000018001a8c0     canblocks_extras_sfun:c28_canblocks_extras.obj
 0002:000008c8       ?c28_s_postfixPredicateTree@?1??mdl_start_c28_canblocks_extras@@9@9 000000018001a8c8     canblocks_extras_sfun:c28_canblocks_extras.obj
 0002:000008d4       ?c28_bb_transitionTxtStartIdx@?1??mdl_start_c28_canblocks_extras@@9@9 000000018001a8d4     canblocks_extras_sfun:c28_canblocks_extras.obj
 0002:000008d8       ?c28_d_relopTxtStartIdx@?1??mdl_start_c28_canblocks_extras@@9@9 000000018001a8d8     canblocks_extras_sfun:c28_canblocks_extras.obj
 0002:000008e0       ?c28_d_relopTxtEndIdx@?1??mdl_start_c28_canblocks_extras@@9@9 000000018001a8e0     canblocks_extras_sfun:c28_canblocks_extras.obj
 0002:000008e8       ?c28_d_relationalopEps@?1??mdl_start_c28_canblocks_extras@@9@9 000000018001a8e8     canblocks_extras_sfun:c28_canblocks_extras.obj
 0002:000008f0       ?c28_d_relationalopType@?1??mdl_start_c28_canblocks_extras@@9@9 000000018001a8f0     canblocks_extras_sfun:c28_canblocks_extras.obj
 0002:00000900       ?c28_u_transitionTxtStartIdx@?1??mdl_start_c28_canblocks_extras@@9@9 000000018001a900     canblocks_extras_sfun:c28_canblocks_extras.obj
 0002:00000908       ?c28_u_transitionTxtEndIdx@?1??mdl_start_c28_canblocks_extras@@9@9 000000018001a908     canblocks_extras_sfun:c28_canblocks_extras.obj
 0002:00000910       ?c28_u_postfixPredicateTree@?1??mdl_start_c28_canblocks_extras@@9@9 000000018001a910     canblocks_extras_sfun:c28_canblocks_extras.obj
 0002:0000091c       ?c28_bb_transitionTxtEndIdx@?1??mdl_start_c28_canblocks_extras@@9@9 000000018001a91c     canblocks_extras_sfun:c28_canblocks_extras.obj
 0002:00000920       ?c28_e_relopTxtStartIdx@?1??mdl_start_c28_canblocks_extras@@9@9 000000018001a920     canblocks_extras_sfun:c28_canblocks_extras.obj
 0002:00000928       ?c28_e_relopTxtEndIdx@?1??mdl_start_c28_canblocks_extras@@9@9 000000018001a928     canblocks_extras_sfun:c28_canblocks_extras.obj
 0002:00000930       ?c28_e_relationalopEps@?1??mdl_start_c28_canblocks_extras@@9@9 000000018001a930     canblocks_extras_sfun:c28_canblocks_extras.obj
 0002:00000938       ?c28_e_relationalopType@?1??mdl_start_c28_canblocks_extras@@9@9 000000018001a938     canblocks_extras_sfun:c28_canblocks_extras.obj
 0002:00000948       ?c28_f_relationalopType@?1??mdl_start_c28_canblocks_extras@@9@9 000000018001a948     canblocks_extras_sfun:c28_canblocks_extras.obj
 0002:00000950       ?c28_x_transitionTxtStartIdx@?1??mdl_start_c28_canblocks_extras@@9@9 000000018001a950     canblocks_extras_sfun:c28_canblocks_extras.obj
 0002:0000095c       ?c28_bb_postfixPredicateTree@?1??mdl_start_c28_canblocks_extras@@9@9 000000018001a95c     canblocks_extras_sfun:c28_canblocks_extras.obj
 0002:00000960       ?c28_x_transitionTxtEndIdx@?1??mdl_start_c28_canblocks_extras@@9@9 000000018001a960     canblocks_extras_sfun:c28_canblocks_extras.obj
 0002:0000096c       ?c28_cb_transitionTxtStartIdx@?1??mdl_start_c28_canblocks_extras@@9@9 000000018001a96c     canblocks_extras_sfun:c28_canblocks_extras.obj
 0002:00000970       ?c28_x_postfixPredicateTree@?1??mdl_start_c28_canblocks_extras@@9@9 000000018001a970     canblocks_extras_sfun:c28_canblocks_extras.obj
 0002:00000984       ?c28_cb_transitionTxtEndIdx@?1??mdl_start_c28_canblocks_extras@@9@9 000000018001a984     canblocks_extras_sfun:c28_canblocks_extras.obj
 0002:00000988       ?c28_g_relopTxtStartIdx@?1??mdl_start_c28_canblocks_extras@@9@9 000000018001a988     canblocks_extras_sfun:c28_canblocks_extras.obj
 0002:00000990       ?c28_g_relopTxtEndIdx@?1??mdl_start_c28_canblocks_extras@@9@9 000000018001a990     canblocks_extras_sfun:c28_canblocks_extras.obj
 0002:00000998       ?c28_g_relationalopEps@?1??mdl_start_c28_canblocks_extras@@9@9 000000018001a998     canblocks_extras_sfun:c28_canblocks_extras.obj
 0002:000009a0       ?c28_g_relationalopType@?1??mdl_start_c28_canblocks_extras@@9@9 000000018001a9a0     canblocks_extras_sfun:c28_canblocks_extras.obj
 0002:000009b0       ?c28_y_transitionTxtStartIdx@?1??mdl_start_c28_canblocks_extras@@9@9 000000018001a9b0     canblocks_extras_sfun:c28_canblocks_extras.obj
 0002:000009bc       ?c28_cb_postfixPredicateTree@?1??mdl_start_c28_canblocks_extras@@9@9 000000018001a9bc     canblocks_extras_sfun:c28_canblocks_extras.obj
 0002:000009c0       ?c28_y_transitionTxtEndIdx@?1??mdl_start_c28_canblocks_extras@@9@9 000000018001a9c0     canblocks_extras_sfun:c28_canblocks_extras.obj
 0002:000009cc       ?c28_db_transitionTxtStartIdx@?1??mdl_start_c28_canblocks_extras@@9@9 000000018001a9cc     canblocks_extras_sfun:c28_canblocks_extras.obj
 0002:000009d0       ?c28_y_postfixPredicateTree@?1??mdl_start_c28_canblocks_extras@@9@9 000000018001a9d0     canblocks_extras_sfun:c28_canblocks_extras.obj
 0002:000009e4       ?c28_db_transitionTxtEndIdx@?1??mdl_start_c28_canblocks_extras@@9@9 000000018001a9e4     canblocks_extras_sfun:c28_canblocks_extras.obj
 0002:000009e8       ?c28_h_relopTxtStartIdx@?1??mdl_start_c28_canblocks_extras@@9@9 000000018001a9e8     canblocks_extras_sfun:c28_canblocks_extras.obj
 0002:000009f0       ?c28_h_relopTxtEndIdx@?1??mdl_start_c28_canblocks_extras@@9@9 000000018001a9f0     canblocks_extras_sfun:c28_canblocks_extras.obj
 0002:000009f8       ?c28_h_relationalopEps@?1??mdl_start_c28_canblocks_extras@@9@9 000000018001a9f8     canblocks_extras_sfun:c28_canblocks_extras.obj
 0002:00000a00       ?c28_h_relationalopType@?1??mdl_start_c28_canblocks_extras@@9@9 000000018001aa00     canblocks_extras_sfun:c28_canblocks_extras.obj
 0002:00000a10       ?c28_db_postfixPredicateTree@?1??mdl_start_c28_canblocks_extras@@9@9 000000018001aa10     canblocks_extras_sfun:c28_canblocks_extras.obj
 0002:00000a14       ?c28_eb_transitionTxtStartIdx@?1??mdl_start_c28_canblocks_extras@@9@9 000000018001aa14     canblocks_extras_sfun:c28_canblocks_extras.obj
 0002:00000a18       ?c28_eb_transitionTxtEndIdx@?1??mdl_start_c28_canblocks_extras@@9@9 000000018001aa18     canblocks_extras_sfun:c28_canblocks_extras.obj
 0002:00000a1c       ?c28_eb_postfixPredicateTree@?1??mdl_start_c28_canblocks_extras@@9@9 000000018001aa1c     canblocks_extras_sfun:c28_canblocks_extras.obj
 0002:00000a20       ?c28_fb_transitionTxtStartIdx@?1??mdl_start_c28_canblocks_extras@@9@9 000000018001aa20     canblocks_extras_sfun:c28_canblocks_extras.obj
 0002:00000a24       ?c28_fb_transitionTxtEndIdx@?1??mdl_start_c28_canblocks_extras@@9@9 000000018001aa24     canblocks_extras_sfun:c28_canblocks_extras.obj
 0002:00000a28       ?c28_fb_postfixPredicateTree@?1??mdl_start_c28_canblocks_extras@@9@9 000000018001aa28     canblocks_extras_sfun:c28_canblocks_extras.obj
 0002:00000a2c       ?c28_gb_transitionTxtStartIdx@?1??mdl_start_c28_canblocks_extras@@9@9 000000018001aa2c     canblocks_extras_sfun:c28_canblocks_extras.obj
 0002:00000a30       ?c28_gb_transitionTxtEndIdx@?1??mdl_start_c28_canblocks_extras@@9@9 000000018001aa30     canblocks_extras_sfun:c28_canblocks_extras.obj
 0002:00000a34       ?c28_gb_postfixPredicateTree@?1??mdl_start_c28_canblocks_extras@@9@9 000000018001aa34     canblocks_extras_sfun:c28_canblocks_extras.obj
 0002:00000a38       ?c28_hb_transitionTxtStartIdx@?1??mdl_start_c28_canblocks_extras@@9@9 000000018001aa38     canblocks_extras_sfun:c28_canblocks_extras.obj
 0002:00000a3c       ?c28_hb_transitionTxtEndIdx@?1??mdl_start_c28_canblocks_extras@@9@9 000000018001aa3c     canblocks_extras_sfun:c28_canblocks_extras.obj
 0002:00000a40       ?c28_hb_postfixPredicateTree@?1??mdl_start_c28_canblocks_extras@@9@9 000000018001aa40     canblocks_extras_sfun:c28_canblocks_extras.obj
 0002:00000a44       ?c28_ib_transitionTxtStartIdx@?1??mdl_start_c28_canblocks_extras@@9@9 000000018001aa44     canblocks_extras_sfun:c28_canblocks_extras.obj
 0002:00000a48       ?c28_ib_transitionTxtEndIdx@?1??mdl_start_c28_canblocks_extras@@9@9 000000018001aa48     canblocks_extras_sfun:c28_canblocks_extras.obj
 0002:00000a4c       ?c28_ib_postfixPredicateTree@?1??mdl_start_c28_canblocks_extras@@9@9 000000018001aa4c     canblocks_extras_sfun:c28_canblocks_extras.obj
 0002:00000a50       ?c28_jb_transitionTxtStartIdx@?1??mdl_start_c28_canblocks_extras@@9@9 000000018001aa50     canblocks_extras_sfun:c28_canblocks_extras.obj
 0002:00000a54       ?c28_jb_transitionTxtEndIdx@?1??mdl_start_c28_canblocks_extras@@9@9 000000018001aa54     canblocks_extras_sfun:c28_canblocks_extras.obj
 0002:00000a58       ?c28_jb_postfixPredicateTree@?1??mdl_start_c28_canblocks_extras@@9@9 000000018001aa58     canblocks_extras_sfun:c28_canblocks_extras.obj
 0002:00000a5c       ?c28_kb_transitionTxtStartIdx@?1??mdl_start_c28_canblocks_extras@@9@9 000000018001aa5c     canblocks_extras_sfun:c28_canblocks_extras.obj
 0002:00000a60       ?c28_kb_transitionTxtEndIdx@?1??mdl_start_c28_canblocks_extras@@9@9 000000018001aa60     canblocks_extras_sfun:c28_canblocks_extras.obj
 0002:00000a64       ?c28_kb_postfixPredicateTree@?1??mdl_start_c28_canblocks_extras@@9@9 000000018001aa64     canblocks_extras_sfun:c28_canblocks_extras.obj
 0002:00000a68       ?c28_lb_transitionTxtStartIdx@?1??mdl_start_c28_canblocks_extras@@9@9 000000018001aa68     canblocks_extras_sfun:c28_canblocks_extras.obj
 0002:00000a70       ?c28_lb_transitionTxtEndIdx@?1??mdl_start_c28_canblocks_extras@@9@9 000000018001aa70     canblocks_extras_sfun:c28_canblocks_extras.obj
 0002:00000a78       ?c28_lb_postfixPredicateTree@?1??mdl_start_c28_canblocks_extras@@9@9 000000018001aa78     canblocks_extras_sfun:c28_canblocks_extras.obj
 0002:00000a84       ?c28_mb_transitionTxtStartIdx@?1??mdl_start_c28_canblocks_extras@@9@9 000000018001aa84     canblocks_extras_sfun:c28_canblocks_extras.obj
 0002:00000a88       ?c28_mb_transitionTxtEndIdx@?1??mdl_start_c28_canblocks_extras@@9@9 000000018001aa88     canblocks_extras_sfun:c28_canblocks_extras.obj
 0002:00000a8c       ?c28_mb_postfixPredicateTree@?1??mdl_start_c28_canblocks_extras@@9@9 000000018001aa8c     canblocks_extras_sfun:c28_canblocks_extras.obj
 0002:00000a90       ?c28_nb_transitionTxtStartIdx@?1??mdl_start_c28_canblocks_extras@@9@9 000000018001aa90     canblocks_extras_sfun:c28_canblocks_extras.obj
 0002:00000a94       ?c28_nb_transitionTxtEndIdx@?1??mdl_start_c28_canblocks_extras@@9@9 000000018001aa94     canblocks_extras_sfun:c28_canblocks_extras.obj
 0002:00000a98       ?c28_nb_postfixPredicateTree@?1??mdl_start_c28_canblocks_extras@@9@9 000000018001aa98     canblocks_extras_sfun:c28_canblocks_extras.obj
 0002:00000a9c       ?c28_ob_transitionTxtStartIdx@?1??mdl_start_c28_canblocks_extras@@9@9 000000018001aa9c     canblocks_extras_sfun:c28_canblocks_extras.obj
 0002:00000aa0       ?c28_ob_transitionTxtEndIdx@?1??mdl_start_c28_canblocks_extras@@9@9 000000018001aaa0     canblocks_extras_sfun:c28_canblocks_extras.obj
 0002:00000aa4       ?c28_ob_postfixPredicateTree@?1??mdl_start_c28_canblocks_extras@@9@9 000000018001aaa4     canblocks_extras_sfun:c28_canblocks_extras.obj
 0002:00000aa8       ?c28_pb_transitionTxtStartIdx@?1??mdl_start_c28_canblocks_extras@@9@9 000000018001aaa8     canblocks_extras_sfun:c28_canblocks_extras.obj
 0002:00000aac       ?c28_pb_transitionTxtEndIdx@?1??mdl_start_c28_canblocks_extras@@9@9 000000018001aaac     canblocks_extras_sfun:c28_canblocks_extras.obj
 0002:00000ab0       ?c28_pb_postfixPredicateTree@?1??mdl_start_c28_canblocks_extras@@9@9 000000018001aab0     canblocks_extras_sfun:c28_canblocks_extras.obj
 0002:00000ae8       GS_ExceptionPointers       000000018001aae8     MSVCRT:gs_report.obj
 0002:00000e70       $unwind$load_Fuel_Pump_V3_1_20201113_20KHz_optimization_info 000000018001ae70     Fuel_Pump_V3_1_20201113_20KHz_sfun.obj
 0002:00000e78       $unwind$unload_Fuel_Pump_V3_1_20201113_20KHz_optimization_info 000000018001ae78     Fuel_Pump_V3_1_20201113_20KHz_sfun.obj
 0002:00000e80       $unwind$sf_Fuel_Pump_V3_1_20201113_20KHz_process_check_sum_call 000000018001ae80     Fuel_Pump_V3_1_20201113_20KHz_sfun.obj
 0002:00000e90       $unwind$sf_Fuel_Pump_V3_1_20201113_20KHz_get_eml_resolved_functions_info 000000018001ae90     Fuel_Pump_V3_1_20201113_20KHz_sfun.obj
 0002:00000ea0       $unwind$sf_Fuel_Pump_V3_1_20201113_20KHz_third_party_uses_info 000000018001aea0     Fuel_Pump_V3_1_20201113_20KHz_sfun.obj
 0002:00000eb0       $unwind$sf_Fuel_Pump_V3_1_20201113_20KHz_jit_fallback_info 000000018001aeb0     Fuel_Pump_V3_1_20201113_20KHz_sfun.obj
 0002:00000ec0       $unwind$sf_Fuel_Pump_V3_1_20201113_20KHz_get_post_codegen_info 000000018001aec0     Fuel_Pump_V3_1_20201113_20KHz_sfun.obj
 0002:00000ed0       $unwind$sf_Fuel_Pump_V3_1_20201113_20KHz_updateBuildInfo_args_info 000000018001aed0     Fuel_Pump_V3_1_20201113_20KHz_sfun.obj
 0002:00000ee0       $unwind$_vsnprintf_l       000000018001aee0     Fuel_Pump_V3_1_20201113_20KHz_sfun_registry.obj
 0002:00000ee8       $unwind$_vsprintf_l        000000018001aee8     Fuel_Pump_V3_1_20201113_20KHz_sfun_registry.obj
 0002:00000ef0       $unwind$sprintf            000000018001aef0     Fuel_Pump_V3_1_20201113_20KHz_sfun_registry.obj
 0002:00000ef8       $unwind$mexFunction        000000018001aef8     Fuel_Pump_V3_1_20201113_20KHz_sfun_registry.obj
 0002:00000f08       $unwind$_ssSetInputPortDirectFeedThroughFcn 000000018001af08     Fuel_Pump_V3_1_20201113_20KHz_sfun_registry.obj
 0002:00000f18       $unwind$_ssSetRWorkValueFcn 000000018001af18     Fuel_Pump_V3_1_20201113_20KHz_sfun_registry.obj
 0002:00000f20       $unwind$_ssGetRWorkValueFcn 000000018001af20     Fuel_Pump_V3_1_20201113_20KHz_sfun_registry.obj
 0002:00000f28       $unwind$_ssSetIWorkValueFcn 000000018001af28     Fuel_Pump_V3_1_20201113_20KHz_sfun_registry.obj
 0002:00000f30       $unwind$_ssGetIWorkValueFcn 000000018001af30     Fuel_Pump_V3_1_20201113_20KHz_sfun_registry.obj
 0002:00000f38       $unwind$_ssSetPWorkValueFcn 000000018001af38     Fuel_Pump_V3_1_20201113_20KHz_sfun_registry.obj
 0002:00000f40       $unwind$_ssGetPWorkValueFcn 000000018001af40     Fuel_Pump_V3_1_20201113_20KHz_sfun_registry.obj
 0002:00000f48       $unwind$_ssGetInputPortSignalFcn 000000018001af48     Fuel_Pump_V3_1_20201113_20KHz_sfun_registry.obj
 0002:00000f58       $unwind$_ssGetInputPortBufferDstPortFcn 000000018001af58     Fuel_Pump_V3_1_20201113_20KHz_sfun_registry.obj
 0002:00000f60       $unwind$_ssGetInputPortSignalPtrsFcn 000000018001af60     Fuel_Pump_V3_1_20201113_20KHz_sfun_registry.obj
 0002:00000f70       $unwind$ssGetParameterTuningCompliance 000000018001af70     Fuel_Pump_V3_1_20201113_20KHz_sfun_registry.obj
 0002:00000f78       $unwind$ssGetDTypeIdFromMxArray 000000018001af78     Fuel_Pump_V3_1_20201113_20KHz_sfun_registry.obj
 0002:00000f80       $unwind$ssWriteRTWMx2dMatParam 000000018001af80     Fuel_Pump_V3_1_20201113_20KHz_sfun_registry.obj
 0002:00000f88       $unwind$ssWriteRTWMxVectParam 000000018001af88     Fuel_Pump_V3_1_20201113_20KHz_sfun_registry.obj
 0002:00000f90       $unwind$ssWriteRTWParameters 000000018001af90     Fuel_Pump_V3_1_20201113_20KHz_sfun_registry.obj
 0002:00000f98       $unwind$ssWriteRTWParamSettings 000000018001af98     Fuel_Pump_V3_1_20201113_20KHz_sfun_registry.obj
 0002:00000fa0       $unwind$ssWriteRTWStr      000000018001afa0     Fuel_Pump_V3_1_20201113_20KHz_sfun_registry.obj
 0002:00000fa8       $unwind$ssWriteRTWWorkVect 000000018001afa8     Fuel_Pump_V3_1_20201113_20KHz_sfun_registry.obj
 0002:00000fbc       $unwind$ssWarning          000000018001afbc     Fuel_Pump_V3_1_20201113_20KHz_sfun_registry.obj
 0002:00000fd0       $unwind$ssWriteRTWNameValuePair 000000018001afd0     Fuel_Pump_V3_1_20201113_20KHz_sfun_registry.obj
 0002:00000fd8       $unwind$_ssSetInputPortMatrixDimensions 000000018001afd8     Fuel_Pump_V3_1_20201113_20KHz_sfun_registry.obj
 0002:00000fe4       $unwind$_ssSetOutputPortMatrixDimensions 000000018001afe4     Fuel_Pump_V3_1_20201113_20KHz_sfun_registry.obj
 0002:00000ff0       $unwind$_ssSetInputPortVectorDimension 000000018001aff0     Fuel_Pump_V3_1_20201113_20KHz_sfun_registry.obj
 0002:00000ffc       $unwind$_ssSetOutputPortVectorDimension 000000018001affc     Fuel_Pump_V3_1_20201113_20KHz_sfun_registry.obj
 0002:00001008       $unwind$ssIsRunTimeParamTunable 000000018001b008     Fuel_Pump_V3_1_20201113_20KHz_sfun_registry.obj
 0002:00001010       $unwind$ssGetSFuncBlockHandle 000000018001b010     Fuel_Pump_V3_1_20201113_20KHz_sfun_registry.obj
 0002:00001018       $unwind$_ssGetCurrentInputPortWidth 000000018001b018     Fuel_Pump_V3_1_20201113_20KHz_sfun_registry.obj
 0002:00001020       $unwind$_ssGetCurrentOutputPortWidth 000000018001b020     Fuel_Pump_V3_1_20201113_20KHz_sfun_registry.obj
 0002:00001028       $unwind$_ssGetCallSystemNumFcnCallDestinations 000000018001b028     Fuel_Pump_V3_1_20201113_20KHz_sfun_registry.obj
 0002:00001030       $unwind$ssGetIsZeroCrossControlDisabled 000000018001b030     Fuel_Pump_V3_1_20201113_20KHz_sfun_registry.obj
 0002:00001038       $unwind$ssSetIsInputPortUsedForContZcSignal 000000018001b038     Fuel_Pump_V3_1_20201113_20KHz_sfun_registry.obj
 0002:00001040       $unwind$ssSetZcSignalIsZcElementDisc 000000018001b040     Fuel_Pump_V3_1_20201113_20KHz_sfun_registry.obj
 0002:00001050       $unwind$ssSetZcSignalName  000000018001b050     Fuel_Pump_V3_1_20201113_20KHz_sfun_registry.obj
 0002:00001058       $unwind$ssSetZcSignalWidth 000000018001b058     Fuel_Pump_V3_1_20201113_20KHz_sfun_registry.obj
 0002:00001060       $unwind$ssSetZcSignalZcEventType 000000018001b060     Fuel_Pump_V3_1_20201113_20KHz_sfun_registry.obj
 0002:00001068       $unwind$ssSetZcSignalType  000000018001b068     Fuel_Pump_V3_1_20201113_20KHz_sfun_registry.obj
 0002:00001070       $unwind$ssSetZcSignalZcTol 000000018001b070     Fuel_Pump_V3_1_20201113_20KHz_sfun_registry.obj
 0002:00001078       $unwind$ssSetZcSignalNeedsEventNotification 000000018001b078     Fuel_Pump_V3_1_20201113_20KHz_sfun_registry.obj
 0002:00001080       $unwind$ssCreateAndAddZcSignalInfo 000000018001b080     Fuel_Pump_V3_1_20201113_20KHz_sfun_registry.obj
 0002:00001088       $unwind$ssCloneAndAddZcSignalInfo 000000018001b088     Fuel_Pump_V3_1_20201113_20KHz_sfun_registry.obj
 0002:00001090       $unwind$ssGetNumZcSignals  000000018001b090     Fuel_Pump_V3_1_20201113_20KHz_sfun_registry.obj
 0002:00001098       $unwind$ssGetZcSignalVector 000000018001b098     Fuel_Pump_V3_1_20201113_20KHz_sfun_registry.obj
 0002:000010a0       $unwind$ssGetZcSignalName  000000018001b0a0     Fuel_Pump_V3_1_20201113_20KHz_sfun_registry.obj
 0002:000010a8       $unwind$ssGetZcSignalWidth 000000018001b0a8     Fuel_Pump_V3_1_20201113_20KHz_sfun_registry.obj
 0002:000010b0       $unwind$ssGetZcSignalZcEventType 000000018001b0b0     Fuel_Pump_V3_1_20201113_20KHz_sfun_registry.obj
 0002:000010b8       $unwind$ssGetZcSignalZcEvents 000000018001b0b8     Fuel_Pump_V3_1_20201113_20KHz_sfun_registry.obj
 0002:000010c0       $unwind$ssGetZcSignalType  000000018001b0c0     Fuel_Pump_V3_1_20201113_20KHz_sfun_registry.obj
 0002:000010c8       $unwind$ssGetZcSignalZcTol 000000018001b0c8     Fuel_Pump_V3_1_20201113_20KHz_sfun_registry.obj
 0002:000010d0       $unwind$ssGetZcSignalNeedsEventNotification 000000018001b0d0     Fuel_Pump_V3_1_20201113_20KHz_sfun_registry.obj
 0002:000010d8       $unwind$ssGetZcSignalIsZcElementDisc 000000018001b0d8     Fuel_Pump_V3_1_20201113_20KHz_sfun_registry.obj
 0002:000010e8       $unwind$ssGetIsInputPortElementContinuous 000000018001b0e8     Fuel_Pump_V3_1_20201113_20KHz_sfun_registry.obj
 0002:000010f8       $unwind$_ssGetAbsTol       000000018001b0f8     Fuel_Pump_V3_1_20201113_20KHz_sfun_registry.obj
 0002:00001100       $unwind$_ssSetInputPortReusableFcn 000000018001b100     Fuel_Pump_V3_1_20201113_20KHz_sfun_registry.obj
 0002:00001108       $unwind$_ssSetOutputPortReusableFcn 000000018001b108     Fuel_Pump_V3_1_20201113_20KHz_sfun_registry.obj
 0002:00001110       $unwind$_ssSetSymbolicDimsSupport 000000018001b110     Fuel_Pump_V3_1_20201113_20KHz_sfun_registry.obj
 0002:00001118       $unwind$_ssRegisterSymbolicDimsExpr 000000018001b118     Fuel_Pump_V3_1_20201113_20KHz_sfun_registry.obj
 0002:00001120       $unwind$_ssRegisterSymbolicDims 000000018001b120     Fuel_Pump_V3_1_20201113_20KHz_sfun_registry.obj
 0002:00001128       $unwind$_ssRegisterSymbolicDimsString 000000018001b128     Fuel_Pump_V3_1_20201113_20KHz_sfun_registry.obj
 0002:00001130       $unwind$_ssRegisterSymbolicDimsIntValue 000000018001b130     Fuel_Pump_V3_1_20201113_20KHz_sfun_registry.obj
 0002:00001138       $unwind$_ssRegisterSymbolicDimsPlus 000000018001b138     Fuel_Pump_V3_1_20201113_20KHz_sfun_registry.obj
 0002:00001140       $unwind$_ssRegisterSymbolicDimsMinus 000000018001b140     Fuel_Pump_V3_1_20201113_20KHz_sfun_registry.obj
 0002:00001148       $unwind$_ssRegisterSymbolicDimsMultiply 000000018001b148     Fuel_Pump_V3_1_20201113_20KHz_sfun_registry.obj
 0002:00001150       $unwind$_ssRegisterSymbolicDimsDivide 000000018001b150     Fuel_Pump_V3_1_20201113_20KHz_sfun_registry.obj
 0002:00001158       $unwind$_ssGetNumSymbolicDims 000000018001b158     Fuel_Pump_V3_1_20201113_20KHz_sfun_registry.obj
 0002:00001160       $unwind$_ssGetSymbolicDim  000000018001b160     Fuel_Pump_V3_1_20201113_20KHz_sfun_registry.obj
 0002:00001168       $unwind$_ssSetInputPortSymbolicDimsId 000000018001b168     Fuel_Pump_V3_1_20201113_20KHz_sfun_registry.obj
 0002:00001170       $unwind$_ssGetCompInputPortSymbolicDimsId 000000018001b170     Fuel_Pump_V3_1_20201113_20KHz_sfun_registry.obj
 0002:00001178       $unwind$_ssSetCompInputPortSymbolicDimsId 000000018001b178     Fuel_Pump_V3_1_20201113_20KHz_sfun_registry.obj
 0002:00001180       $unwind$_ssSetOutputPortSymbolicDimsId 000000018001b180     Fuel_Pump_V3_1_20201113_20KHz_sfun_registry.obj
 0002:00001188       $unwind$_ssGetCompOutputPortSymbolicDimsId 000000018001b188     Fuel_Pump_V3_1_20201113_20KHz_sfun_registry.obj
 0002:00001190       $unwind$_ssSetCompOutputPortSymbolicDimsId 000000018001b190     Fuel_Pump_V3_1_20201113_20KHz_sfun_registry.obj
 0002:00001198       $unwind$_ssSetCompDWorkSymbolicDimsId 000000018001b198     Fuel_Pump_V3_1_20201113_20KHz_sfun_registry.obj
 0002:000011a0       $unwind$sf_process_check_sum_call 000000018001b1a0     Fuel_Pump_V3_1_20201113_20KHz_sfun_registry.obj
 0002:000011a8       $unwind$sf_process_get_third_party_uses_info_call 000000018001b1a8     Fuel_Pump_V3_1_20201113_20KHz_sfun_registry.obj
 0002:000011b8       $unwind$sf_process_get_jit_fallback_info_call 000000018001b1b8     Fuel_Pump_V3_1_20201113_20KHz_sfun_registry.obj
 0002:000011c8       $unwind$sf_process_get_post_codegen_info_call 000000018001b1c8     Fuel_Pump_V3_1_20201113_20KHz_sfun_registry.obj
 0002:000011d8       $unwind$sf_process_get_updateBuildInfo_args_info_call 000000018001b1d8     Fuel_Pump_V3_1_20201113_20KHz_sfun_registry.obj
 0002:000011e8       $unwind$sf_process_get_eml_resolved_functions_info_call 000000018001b1e8     Fuel_Pump_V3_1_20201113_20KHz_sfun_registry.obj
 0002:000011f8       $unwind$sf_mex_unlock_call 000000018001b1f8     Fuel_Pump_V3_1_20201113_20KHz_sfun_registry.obj
 0002:00001208       $unwind$ProcessMexSfunctionCmdLineCall 000000018001b208     Fuel_Pump_V3_1_20201113_20KHz_sfun_registry.obj
 0002:00001210       $unwind$sf_machine_global_initializer_called 000000018001b210     Fuel_Pump_V3_1_20201113_20KHz_sfun_registry.obj
 0002:00001218       $unwind$sf_machine_global_method_dispatcher 000000018001b218     Fuel_Pump_V3_1_20201113_20KHz_sfun_registry.obj
 0002:00001220       $unwind$sf_machine_global_terminator 000000018001b220     Fuel_Pump_V3_1_20201113_20KHz_sfun_registry.obj
 0002:00001228       $unwind$sf_register_machine_exported_symbols 000000018001b228     Fuel_Pump_V3_1_20201113_20KHz_sfun_registry.obj
 0002:00001230       $unwind$sf_machine_global_initializer 000000018001b230     Fuel_Pump_V3_1_20201113_20KHz_sfun_registry.obj
 0002:00001238       $unwind$mdlGetSimState     000000018001b238     Fuel_Pump_V3_1_20201113_20KHz_sfun_registry.obj
 0002:00001240       $unwind$mdlSetSimState     000000018001b240     Fuel_Pump_V3_1_20201113_20KHz_sfun_registry.obj
 0002:00001248       $unwind$mdlSetWorkWidths   000000018001b248     Fuel_Pump_V3_1_20201113_20KHz_sfun_registry.obj
 0002:00001250       $unwind$mdlProcessParameters 000000018001b250     Fuel_Pump_V3_1_20201113_20KHz_sfun_registry.obj
 0002:00001258       $unwind$mdl_start_processing 000000018001b258     Fuel_Pump_V3_1_20201113_20KHz_sfun_registry.obj
 0002:00001260       $unwind$mdl_terminate_processing 000000018001b260     Fuel_Pump_V3_1_20201113_20KHz_sfun_registry.obj
 0002:00001268       $unwind$mdlStart           000000018001b268     Fuel_Pump_V3_1_20201113_20KHz_sfun_registry.obj
 0002:00001270       $unwind$mdlTerminate       000000018001b270     Fuel_Pump_V3_1_20201113_20KHz_sfun_registry.obj
 0002:00001278       $unwind$mdlInitializeSizes 000000018001b278     Fuel_Pump_V3_1_20201113_20KHz_sfun_registry.obj
 0002:00001280       $unwind$mdlInitializeSampleTimes 000000018001b280     Fuel_Pump_V3_1_20201113_20KHz_sfun_registry.obj
 0002:00001288       $unwind$mdl_outputs_continuous_legacy 000000018001b288     Fuel_Pump_V3_1_20201113_20KHz_sfun_registry.obj
 0002:00001290       $unwind$mdl_outputs_processing 000000018001b290     Fuel_Pump_V3_1_20201113_20KHz_sfun_registry.obj
 0002:00001298       $unwind$mdl_zeroCrossings_processing 000000018001b298     Fuel_Pump_V3_1_20201113_20KHz_sfun_registry.obj
 0002:000012a0       $unwind$mdlZeroCrossings   000000018001b2a0     Fuel_Pump_V3_1_20201113_20KHz_sfun_registry.obj
 0002:000012a8       $unwind$mdl_derivatives_processing 000000018001b2a8     Fuel_Pump_V3_1_20201113_20KHz_sfun_registry.obj
 0002:000012b0       $unwind$mdlDerivatives     000000018001b2b0     Fuel_Pump_V3_1_20201113_20KHz_sfun_registry.obj
 0002:000012b8       $unwind$mdl_initialize_conditions_processing 000000018001b2b8     Fuel_Pump_V3_1_20201113_20KHz_sfun_registry.obj
 0002:000012c0       $unwind$mdlInitializeConditions 000000018001b2c0     Fuel_Pump_V3_1_20201113_20KHz_sfun_registry.obj
 0002:000012c8       $unwind$mdl_ext_mode_exec_processing 000000018001b2c8     Fuel_Pump_V3_1_20201113_20KHz_sfun_registry.obj
 0002:000012d0       $unwind$mdlExtModeExec     000000018001b2d0     Fuel_Pump_V3_1_20201113_20KHz_sfun_registry.obj
 0002:000012d8       $unwind$mdlRTW             000000018001b2d8     Fuel_Pump_V3_1_20201113_20KHz_sfun_registry.obj
 0002:000012e0       $unwind$mdl_enable_processing 000000018001b2e0     Fuel_Pump_V3_1_20201113_20KHz_sfun_registry.obj
 0002:000012e8       $unwind$mdlEnable          000000018001b2e8     Fuel_Pump_V3_1_20201113_20KHz_sfun_registry.obj
 0002:000012f0       $unwind$mdl_disable_processing 000000018001b2f0     Fuel_Pump_V3_1_20201113_20KHz_sfun_registry.obj
 0002:000012f8       $unwind$mdlDisable         000000018001b2f8     Fuel_Pump_V3_1_20201113_20KHz_sfun_registry.obj
 0002:00001300       $unwind$mdlOutputs         000000018001b300     Fuel_Pump_V3_1_20201113_20KHz_sfun_registry.obj
 0002:00001308       $unwind$mdl_update_processing 000000018001b308     Fuel_Pump_V3_1_20201113_20KHz_sfun_registry.obj
 0002:00001310       $unwind$mdlUpdate          000000018001b310     Fuel_Pump_V3_1_20201113_20KHz_sfun_registry.obj
 0002:00001318       $unwind$ProcessMexSfunctionEveryCall 000000018001b318     Fuel_Pump_V3_1_20201113_20KHz_sfun_registry.obj
 0002:00001320       $unwind$_RegNumInputPortsCB 000000018001b320     Fuel_Pump_V3_1_20201113_20KHz_sfun_registry.obj
 0002:00001328       $unwind$_RegNumOutputPortsCB 000000018001b328     Fuel_Pump_V3_1_20201113_20KHz_sfun_registry.obj
 0002:00001330       $unwind$_CreateSimStruct   000000018001b330     Fuel_Pump_V3_1_20201113_20KHz_sfun_registry.obj
 0002:00001338       $unwind$_ProcessMexSfunctionCmdLineCall 000000018001b338     Fuel_Pump_V3_1_20201113_20KHz_sfun_registry.obj
 0002:00001348       $unwind$ReportIndexOutOfBoundsError 000000018001b348     Fuel_Pump_V3_1_20201113_20KHz_sfun_registry.obj
 0002:00001358       $unwind$load_canblocks_extras_optimization_info 000000018001b358     canblocks_extras_sfun:canblocks_extras_sfun.obj
 0002:00001360       $unwind$unload_canblocks_extras_optimization_info 000000018001b360     canblocks_extras_sfun:canblocks_extras_sfun.obj
 0002:00001368       $unwind$sf_canblocks_extras_method_dispatcher 000000018001b368     canblocks_extras_sfun:canblocks_extras_sfun.obj
 0002:00001370       $unwind$sf_canblocks_extras_process_check_sum_call 000000018001b370     canblocks_extras_sfun:canblocks_extras_sfun.obj
 0002:00001380       $unwind$sf_canblocks_extras_get_eml_resolved_functions_info 000000018001b380     canblocks_extras_sfun:canblocks_extras_sfun.obj
 0002:00001390       $unwind$sf_canblocks_extras_third_party_uses_info 000000018001b390     canblocks_extras_sfun:canblocks_extras_sfun.obj
 0002:000013a0       $unwind$sf_canblocks_extras_jit_fallback_info 000000018001b3a0     canblocks_extras_sfun:canblocks_extras_sfun.obj
 0002:000013b0       $unwind$sf_canblocks_extras_get_post_codegen_info 000000018001b3b0     canblocks_extras_sfun:canblocks_extras_sfun.obj
 0002:000013c0       $unwind$sf_canblocks_extras_updateBuildInfo_args_info 000000018001b3c0     canblocks_extras_sfun:canblocks_extras_sfun.obj
 0002:000013d0       $unwind$sf_c28_canblocks_extras_get_eml_resolved_functions_info 000000018001b3d0     canblocks_extras_sfun:c28_canblocks_extras.obj
 0002:000013d8       $unwind$sf_c28_canblocks_extras_get_check_sum 000000018001b3d8     canblocks_extras_sfun:c28_canblocks_extras.obj
 0002:000013e0       $unwind$c28_canblocks_extras_method_dispatcher 000000018001b3e0     canblocks_extras_sfun:c28_canblocks_extras.obj
 0002:000013e8       $unwind$initialize_c28_canblocks_extras 000000018001b3e8     canblocks_extras_sfun:c28_canblocks_extras.obj
 0002:000013f0       $unwind$initialize_params_c28_canblocks_extras 000000018001b3f0     canblocks_extras_sfun:c28_canblocks_extras.obj
 0002:000013f8       $unwind$enable_c28_canblocks_extras 000000018001b3f8     canblocks_extras_sfun:c28_canblocks_extras.obj
 0002:00001400       $unwind$disable_c28_canblocks_extras 000000018001b400     canblocks_extras_sfun:c28_canblocks_extras.obj
 0002:00001408       $unwind$c28_update_jit_animation_state_c28_canblocks_extras 000000018001b408     canblocks_extras_sfun:c28_canblocks_extras.obj
 0002:00001410       $unwind$c28_do_animation_call_c28_canblocks_extras 000000018001b410     canblocks_extras_sfun:c28_canblocks_extras.obj
 0002:00001418       $unwind$get_sim_state_c28_canblocks_extras 000000018001b418     canblocks_extras_sfun:c28_canblocks_extras.obj
 0002:00001420       $unwind$set_sim_state_c28_canblocks_extras 000000018001b420     canblocks_extras_sfun:c28_canblocks_extras.obj
 0002:00001428       $unwind$finalize_c28_canblocks_extras 000000018001b428     canblocks_extras_sfun:c28_canblocks_extras.obj
 0002:00001430       $unwind$sf_gateway_c28_canblocks_extras 000000018001b430     canblocks_extras_sfun:c28_canblocks_extras.obj
 0002:00001438       $unwind$mdl_start_c28_canblocks_extras 000000018001b438     canblocks_extras_sfun:c28_canblocks_extras.obj
 0002:00001440       $unwind$c28_Connected      000000018001b440     canblocks_extras_sfun:c28_canblocks_extras.obj
 0002:0000144c       $unwind$c28_tx_dto         000000018001b44c     canblocks_extras_sfun:c28_canblocks_extras.obj
 0002:00001454       $unwind$c28_emlrt_marshallIn 000000018001b454     canblocks_extras_sfun:c28_canblocks_extras.obj
 0002:0000145c       $unwind$c28_b_emlrt_marshallIn 000000018001b45c     canblocks_extras_sfun:c28_canblocks_extras.obj
 0002:00001464       $unwind$c28_c_emlrt_marshallIn 000000018001b464     canblocks_extras_sfun:c28_canblocks_extras.obj
 0002:0000146c       $unwind$c28_d_emlrt_marshallIn 000000018001b46c     canblocks_extras_sfun:c28_canblocks_extras.obj
 0002:00001474       $unwind$c28_chart_data_browse_helper 000000018001b474     canblocks_extras_sfun:c28_canblocks_extras.obj
 0002:00001484       $unwind$c28_slcc_cov_call_setSlave_Version_G1WZrK4kHQSfLP1BLKd6ID_by_sim 000000018001b484     canblocks_extras_sfun:c28_canblocks_extras.obj
 0002:0000148c       $unwind$c28_slcc_cov_call_setStation_Address_G1WZrK4kHQSfLP1BLKd6ID_by_s 000000018001b48c     canblocks_extras_sfun:c28_canblocks_extras.obj
 0002:00001494       $unwind$c28_slcc_cov_call_setCurrent_State_G1WZrK4kHQSfLP1BLKd6ID_by_sim 000000018001b494     canblocks_extras_sfun:c28_canblocks_extras.obj
 0002:0000149c       $unwind$c28_slcc_cov_call_c_reset_all_DAQ_lists_G1WZrK4kHQSfLP1BLKd6ID_b 000000018001b49c     canblocks_extras_sfun:c28_canblocks_extras.obj
 0002:000014a4       $unwind$c28_slcc_cov_call_getStation_Address_G1WZrK4kHQSfLP1BLKd6ID_by_s 000000018001b4a4     canblocks_extras_sfun:c28_canblocks_extras.obj
 0002:000014ac       $unwind$c28_slcc_cov_call_setHandled_G1WZrK4kHQSfLP1BLKd6ID_by_simstruct 000000018001b4ac     canblocks_extras_sfun:c28_canblocks_extras.obj
 0002:000014b4       $unwind$c28_slcc_cov_call_setMaster_Version_G1WZrK4kHQSfLP1BLKd6ID_by_si 000000018001b4b4     canblocks_extras_sfun:c28_canblocks_extras.obj
 0002:000014bc       $unwind$c28_slcc_cov_call_getMTAPtr_G1WZrK4kHQSfLP1BLKd6ID_by_simstruct 000000018001b4bc     canblocks_extras_sfun:c28_canblocks_extras.obj
 0002:000014c4       $unwind$c28_slcc_cov_call_c_write_uint8s_G1WZrK4kHQSfLP1BLKd6ID_by_simst 000000018001b4c4     canblocks_extras_sfun:c28_canblocks_extras.obj
 0002:000014cc       $unwind$c28_slcc_cov_call_c_set_element_pointer_G1WZrK4kHQSfLP1BLKd6ID_b 000000018001b4cc     canblocks_extras_sfun:c28_canblocks_extras.obj
 0002:000014d4       $unwind$c28_slcc_cov_call_c_start_stop_all_G1WZrK4kHQSfLP1BLKd6ID_by_sim 000000018001b4d4     canblocks_extras_sfun:c28_canblocks_extras.obj
 0002:000014dc       $unwind$c28_slcc_cov_call_c_start_stop_G1WZrK4kHQSfLP1BLKd6ID_by_simstru 000000018001b4dc     canblocks_extras_sfun:c28_canblocks_extras.obj
 0002:000014e4       $unwind$c28_slcc_cov_call_setS_Status_G1WZrK4kHQSfLP1BLKd6ID_by_simstruc 000000018001b4e4     canblocks_extras_sfun:c28_canblocks_extras.obj
 0002:000014ec       $unwind$c28_slcc_cov_call_c_write_daq_G1WZrK4kHQSfLP1BLKd6ID_by_simstruc 000000018001b4ec     canblocks_extras_sfun:c28_canblocks_extras.obj
 0002:000014f4       $unwind$c28_slcc_cov_call_setData_G1WZrK4kHQSfLP1BLKd6ID_by_simstruct 000000018001b4f4     canblocks_extras_sfun:c28_canblocks_extras.obj
 0002:000014fc       $unwind$c28_slcc_cov_call_getSlave_Version_G1WZrK4kHQSfLP1BLKd6ID_by_sim 000000018001b4fc     canblocks_extras_sfun:c28_canblocks_extras.obj
 0002:00001504       $unwind$c28_slcc_cov_call_getDataPtr_G1WZrK4kHQSfLP1BLKd6ID_by_simstruct 000000018001b504     canblocks_extras_sfun:c28_canblocks_extras.obj
 0002:0000150c       $unwind$c28_slcc_cov_call_c_read_uint8s_G1WZrK4kHQSfLP1BLKd6ID_by_simstr 000000018001b50c     canblocks_extras_sfun:c28_canblocks_extras.obj
 0002:00001514       $unwind$c28_slcc_cov_call_c_init_daq_list_G1WZrK4kHQSfLP1BLKd6ID_by_sims 000000018001b514     canblocks_extras_sfun:c28_canblocks_extras.obj
 0002:0000151c       $unwind$c28_slcc_cov_call_getS_Status_G1WZrK4kHQSfLP1BLKd6ID_by_simstruc 000000018001b51c     canblocks_extras_sfun:c28_canblocks_extras.obj
 0002:00001524       $unwind$c28__u8_u16_       000000018001b524     canblocks_extras_sfun:c28_canblocks_extras.obj
 0002:0000152c       $unwind$init_simulink_io_address 000000018001b52c     canblocks_extras_sfun:c28_canblocks_extras.obj
 0002:00001534       $unwind$sf_c28_canblocks_extras_third_party_uses_info 000000018001b534     canblocks_extras_sfun:c28_canblocks_extras.obj
 0002:0000153c       $unwind$sf_c28_canblocks_extras_jit_fallback_info 000000018001b53c     canblocks_extras_sfun:c28_canblocks_extras.obj
 0002:0000154c       $unwind$sf_c28_canblocks_extras_updateBuildInfo_args_info 000000018001b54c     canblocks_extras_sfun:c28_canblocks_extras.obj
 0002:00001554       $unwind$sf_get_sim_state_info_c28_canblocks_extras 000000018001b554     canblocks_extras_sfun:c28_canblocks_extras.obj
 0002:0000155c       $unwind$sf_opaque_initialize_c28_canblocks_extras 000000018001b55c     canblocks_extras_sfun:c28_canblocks_extras.obj
 0002:00001564       $unwind$sf_opaque_enable_c28_canblocks_extras 000000018001b564     canblocks_extras_sfun:c28_canblocks_extras.obj
 0002:0000156c       $unwind$sf_opaque_disable_c28_canblocks_extras 000000018001b56c     canblocks_extras_sfun:c28_canblocks_extras.obj
 0002:00001574       $unwind$sf_opaque_gateway_c28_canblocks_extras 000000018001b574     canblocks_extras_sfun:c28_canblocks_extras.obj
 0002:0000157c       $unwind$sf_opaque_get_sim_state_c28_canblocks_extras 000000018001b57c     canblocks_extras_sfun:c28_canblocks_extras.obj
 0002:00001584       $unwind$sf_opaque_set_sim_state_c28_canblocks_extras 000000018001b584     canblocks_extras_sfun:c28_canblocks_extras.obj
 0002:0000158c       $unwind$sf_opaque_terminate_c28_canblocks_extras 000000018001b58c     canblocks_extras_sfun:c28_canblocks_extras.obj
 0002:00001594       $unwind$mdlProcessParameters_c28_canblocks_extras 000000018001b594     canblocks_extras_sfun:c28_canblocks_extras.obj
 0002:0000159c       $unwind$sf_c28_canblocks_extras_get_post_codegen_info 000000018001b59c     canblocks_extras_sfun:c28_canblocks_extras.obj
 0002:000015ac       $unwind$mdlSetWorkWidths_c28_canblocks_extras 000000018001b5ac     canblocks_extras_sfun:c28_canblocks_extras.obj
 0002:000015b4       $unwind$mdlRTW_c28_canblocks_extras 000000018001b5b4     canblocks_extras_sfun:c28_canblocks_extras.obj
 0002:000015bc       $unwind$mdlStart_c28_canblocks_extras 000000018001b5bc     canblocks_extras_sfun:c28_canblocks_extras.obj
 0002:000015c4       $unwind$__report_securityfailure 000000018001b5c4     MSVCRT:gs_report.obj
 0002:000015cc       $unwind$__report_securityfailureEx 000000018001b5cc     MSVCRT:gs_report.obj
 0002:000015d4       $unwind$__report_rangecheckfailure 000000018001b5d4     MSVCRT:gs_report.obj
 0002:000015dc       $unwind$__report_gsfailure 000000018001b5dc     MSVCRT:gs_report.obj
 0002:000015e4       $unwind$capture_current_context 000000018001b5e4     MSVCRT:gs_report.obj
 0002:000015f0       $unwind$capture_previous_context 000000018001b5f0     MSVCRT:gs_report.obj
 0002:000015fc       $unwind$__raise_securityfailure 000000018001b5fc     MSVCRT:gs_report.obj
 0002:00001604       $unwind$__GSHandlerCheckCommon 000000018001b604     MSVCRT:gshandler.obj
 0002:0000160c       $unwind$__GSHandlerCheck   000000018001b60c     MSVCRT:gshandler.obj
 0002:00001618       $xdatasym                  000000018001b618     MSVCRT:amdsecgs.obj
 0002:0000161c       $unwind$?dllmain_crt_process_attach@@YAHQEAUHINSTANCE__@@QEAX@Z 000000018001b61c     MSVCRT:dll_dllmain.obj
 0002:00001658       $unwind$?fin$0@?0??dllmain_crt_process_attach@@YAHQEAUHINSTANCE__@@QEAX@Z@4HA 000000018001b658     MSVCRT:dll_dllmain.obj
 0002:00001660       $unwind$?dllmain_crt_process_detach@@YAH_N@Z 000000018001b660     MSVCRT:dll_dllmain.obj
 0002:000016b4       $unwind$?fin$0@?0??dllmain_crt_process_detach@@YAH_N@Z@4HA 000000018001b6b4     MSVCRT:dll_dllmain.obj
 0002:000016bc       $unwind$?fin$1@?0??dllmain_crt_process_detach@@YAH_N@Z@4HA 000000018001b6bc     MSVCRT:dll_dllmain.obj
 0002:000016c4       $unwind$?dllmain_crt_dispatch@@YAHQEAUHINSTANCE__@@KQEAX@Z 000000018001b6c4     MSVCRT:dll_dllmain.obj
 0002:000016cc       $unwind$?dllmain_dispatch@@YAHQEAUHINSTANCE__@@KQEAX@Z 000000018001b6cc     MSVCRT:dll_dllmain.obj
 0002:000016f4       $unwind$?filt$0@?0??dllmain_dispatch@@YAHQEAUHINSTANCE__@@KQEAX@Z@4HA 000000018001b6f4     MSVCRT:dll_dllmain.obj
 0002:000016fc       $unwind$_DllMainCRTStartup 000000018001b6fc     MSVCRT:dll_dllmain.obj
 0002:0000170c       $unwind$__security_init_cookie 000000018001b70c     MSVCRT:gs_support.obj
 0002:00001718       $unwind$__get_entropy      000000018001b718     MSVCRT:gs_support.obj
 0002:00001720       $unwind$DllMain            000000018001b720     MSVCRT:dll_dllmain_stub.obj
 0002:00001728       $unwind$__scrt_initialize_default_local_stdio_options 000000018001b728     MSVCRT:default_local_stdio_options.obj
 0002:00001730       $unwind$atexit             000000018001b730     MSVCRT:utility.obj
 0002:00001738       $unwind$_onexit            000000018001b738     MSVCRT:utility.obj
 0002:00001740       $unwind$__scrt_is_nonwritable_in_current_image 000000018001b740     MSVCRT:utility.obj
 0002:00001760       $unwind$__scrt_is_nonwritable_in_current_image$filt$0 000000018001b760     MSVCRT:utility.obj
 0002:00001768       $unwind$__scrt_acquire_startup_lock 000000018001b768     MSVCRT:utility.obj
 0002:00001770       $unwind$__scrt_release_startup_lock 000000018001b770     MSVCRT:utility.obj
 0002:00001778       $unwind$__scrt_initialize_crt 000000018001b778     MSVCRT:utility.obj
 0002:00001780       $unwind$__scrt_uninitialize_crt 000000018001b780     MSVCRT:utility.obj
 0002:00001788       $unwind$__scrt_initialize_onexit_tables 000000018001b788     MSVCRT:utility.obj
 0002:00001790       $unwind$__scrt_dllmain_exception_filter 000000018001b790     MSVCRT:utility.obj
 0002:000017a4       $unwind$__scrt_dllmain_before_initialize_c 000000018001b7a4     MSVCRT:utility.obj
 0002:000017ac       $unwind$__scrt_dllmain_after_initialize_c 000000018001b7ac     MSVCRT:utility.obj
 0002:000017b4       $unwind$__scrt_dllmain_uninitialize_c 000000018001b7b4     MSVCRT:utility.obj
 0002:000017bc       $unwind$__scrt_dllmain_uninitialize_critical 000000018001b7bc     MSVCRT:utility.obj
 0002:000017c4       $unwind$__scrt_dllmain_crt_thread_attach 000000018001b7c4     MSVCRT:utility.obj
 0002:000017cc       $unwind$__scrt_dllmain_crt_thread_detach 000000018001b7cc     MSVCRT:utility.obj
 0002:000017d4       $unwind$?configure_argv@__scrt_narrow_argv_policy@@SAHXZ 000000018001b7d4     MSVCRT:utility.obj
 0002:000017dc       $unwind$__scrt_get_show_window_mode 000000018001b7dc     MSVCRT:utility_desktop.obj
 0002:000017e4       $unwind$__scrt_is_managed_app 000000018001b7e4     MSVCRT:utility_desktop.obj
 0002:000017ec       $unwind$__scrt_fastfail    000000018001b7ec     MSVCRT:utility_desktop.obj
 0002:000017fc       $unwind$__scrt_unhandled_exception_filter 000000018001b7fc     MSVCRT:utility_desktop.obj
 0002:00001808       $unwind$_RTC_Initialize    000000018001b808     MSVCRT:initsect.obj
 0002:00001814       $unwind$_RTC_Terminate     000000018001b814     MSVCRT:initsect.obj
 0002:00001820       $unwind$__isa_available_init 000000018001b820     MSVCRT:cpu_disp.obj
 0002:00001830       $xdatasym                  000000018001b830     MSVCRT:guard_dispatch.obj
 0002:00001840       .edata                     000000018001b840     Fuel_Pump_V3_1_20201113_20KHz_sfun.exp
 0002:00001868       rgpv                       000000018001b868     Fuel_Pump_V3_1_20201113_20KHz_sfun.exp
 0002:00001870       rgszName                   000000018001b870     Fuel_Pump_V3_1_20201113_20KHz_sfun.exp
 0002:00001878       rgwOrd                     000000018001b878     Fuel_Pump_V3_1_20201113_20KHz_sfun.exp
 0002:0000187c       szName                     000000018001b87c     Fuel_Pump_V3_1_20201113_20KHz_sfun.exp
 0002:000018a6       $N00001                    000000018001b8a6     Fuel_Pump_V3_1_20201113_20KHz_sfun.exp
 0002:000018b2       $N00002                    000000018001b8b2     Fuel_Pump_V3_1_20201113_20KHz_sfun.exp
 0002:000022cc       .idata$6                   000000018001c2cc     sf_runtime:sf_runtime.dll
 0002:00002446       .idata$6                   000000018001c446     libmx:libmx.dll
 0002:000024da       .idata$6                   000000018001c4da     libmex:libmex.dll
 0002:000024fc       .idata$6                   000000018001c4fc     libut:libut.dll
 0002:00002530       .idata$6                   000000018001c530     libmwsl_sfcn_cov_bridge:libmwsl_sfcn_cov_bridge.dll
 0002:00002666       .idata$6                   000000018001c666     libcovrt:libcovrt.dll
 0002:00002800       .idata$6                   000000018001c800     kernel32:KERNEL32.dll
 0002:0000288e       .idata$6                   000000018001c88e     vcruntime:VCRUNTIME140.dll
 0002:000029dc       .idata$6                   000000018001c9dc     ucrt:api-ms-win-crt-string-l1-1-0.dll
 0002:000029fe       .idata$6                   000000018001c9fe     ucrt:api-ms-win-crt-stdio-l1-1-0.dll
 0002:00002a1e       .idata$6                   000000018001ca1e     ucrt:api-ms-win-crt-heap-l1-1-0.dll
 0002:00002a3e       .idata$6                   000000018001ca3e     ucrt:api-ms-win-crt-runtime-l1-1-0.dll
 0002:00002d8c       .idata$6                   000000018001cd8c     G1WZrK4kHQSfLP1BLKd6ID_cclib:G1WZrK4kHQSfLP1BLKd6ID_cclib.dll
 0003:00000000       $SG24593                   000000018001d000     Fuel_Pump_V3_1_20201113_20KHz_sfun.obj
 0003:00000018       $SG24598                   000000018001d018     Fuel_Pump_V3_1_20201113_20KHz_sfun.obj
 0003:00000020       $SG24601                   000000018001d020     Fuel_Pump_V3_1_20201113_20KHz_sfun.obj
 0003:00000028       $SG24605                   000000018001d028     Fuel_Pump_V3_1_20201113_20KHz_sfun.obj
 0003:00000030       $SG24631                   000000018001d030     Fuel_Pump_V3_1_20201113_20KHz_sfun.obj
 0003:00000050       $SG24658                   000000018001d050     Fuel_Pump_V3_1_20201113_20KHz_sfun.obj
 0003:00000070       $SG24685                   000000018001d070     Fuel_Pump_V3_1_20201113_20KHz_sfun.obj
 0003:00000088       $SG24712                   000000018001d088     Fuel_Pump_V3_1_20201113_20KHz_sfun.obj
 0003:000000a0       $SG24739                   000000018001d0a0     Fuel_Pump_V3_1_20201113_20KHz_sfun.obj
 0003:000000c0       $SG24765                   000000018001d0c0     Fuel_Pump_V3_1_20201113_20KHz_sfun.obj
 0003:000000e0       $SG24766                   000000018001d0e0     Fuel_Pump_V3_1_20201113_20KHz_sfun.obj
 0003:00000108       $SG24599                   000000018001d108     Fuel_Pump_V3_1_20201113_20KHz_sfun_registry.obj
 0003:00000128       $SG24601                   000000018001d128     Fuel_Pump_V3_1_20201113_20KHz_sfun_registry.obj
 0003:00000148       $SG24603                   000000018001d148     Fuel_Pump_V3_1_20201113_20KHz_sfun_registry.obj
 0003:0000015c       $SG24985                   000000018001d15c     Fuel_Pump_V3_1_20201113_20KHz_sfun_registry.obj
 0003:00000164       $SG26615                   000000018001d164     Fuel_Pump_V3_1_20201113_20KHz_sfun_registry.obj
 0003:00000168       $SG24652                   000000018001d168     Fuel_Pump_V3_1_20201113_20KHz_sfun_registry.obj
 0003:00000180       $SG24654                   000000018001d180     Fuel_Pump_V3_1_20201113_20KHz_sfun_registry.obj
 0003:000001a0       $SG24656                   000000018001d1a0     Fuel_Pump_V3_1_20201113_20KHz_sfun_registry.obj
 0003:000001b4       $SG24991                   000000018001d1b4     Fuel_Pump_V3_1_20201113_20KHz_sfun_registry.obj
 0003:000001bc       $SG26693                   000000018001d1bc     Fuel_Pump_V3_1_20201113_20KHz_sfun_registry.obj
 0003:000001c0       $SG24705                   000000018001d1c0     Fuel_Pump_V3_1_20201113_20KHz_sfun_registry.obj
 0003:000001d8       $SG24707                   000000018001d1d8     Fuel_Pump_V3_1_20201113_20KHz_sfun_registry.obj
 0003:000001f8       $SG24709                   000000018001d1f8     Fuel_Pump_V3_1_20201113_20KHz_sfun_registry.obj
 0003:0000020c       $SG25676                   000000018001d20c     Fuel_Pump_V3_1_20201113_20KHz_sfun_registry.obj
 0003:00000214       $SG27079                   000000018001d214     Fuel_Pump_V3_1_20201113_20KHz_sfun_registry.obj
 0003:00000220       $SG24758                   000000018001d220     Fuel_Pump_V3_1_20201113_20KHz_sfun_registry.obj
 0003:00000240       $SG24760                   000000018001d240     Fuel_Pump_V3_1_20201113_20KHz_sfun_registry.obj
 0003:00000260       $SG24762                   000000018001d260     Fuel_Pump_V3_1_20201113_20KHz_sfun_registry.obj
 0003:00000278       $SG24811                   000000018001d278     Fuel_Pump_V3_1_20201113_20KHz_sfun_registry.obj
 0003:00000298       $SG24813                   000000018001d298     Fuel_Pump_V3_1_20201113_20KHz_sfun_registry.obj
 0003:000002b8       $SG24815                   000000018001d2b8     Fuel_Pump_V3_1_20201113_20KHz_sfun_registry.obj
 0003:000002d0       $SG24835                   000000018001d2d0     Fuel_Pump_V3_1_20201113_20KHz_sfun_registry.obj
 0003:000002e0       $SG24853                   000000018001d2e0     Fuel_Pump_V3_1_20201113_20KHz_sfun_registry.obj
 0003:000002f8       $SG24895                   000000018001d2f8     Fuel_Pump_V3_1_20201113_20KHz_sfun_registry.obj
 0003:00000318       $SG24897                   000000018001d318     Fuel_Pump_V3_1_20201113_20KHz_sfun_registry.obj
 0003:00000330       $SG24986                   000000018001d330     Fuel_Pump_V3_1_20201113_20KHz_sfun_registry.obj
 0003:00000348       $SG24992                   000000018001d348     Fuel_Pump_V3_1_20201113_20KHz_sfun_registry.obj
 0003:00000368       $SG25133                   000000018001d368     Fuel_Pump_V3_1_20201113_20KHz_sfun_registry.obj
 0003:00000390       _sfcnName                  000000018001d390     Fuel_Pump_V3_1_20201113_20KHz_sfun_registry.obj
 0003:000003b0       $SG25150                   000000018001d3b0     Fuel_Pump_V3_1_20201113_20KHz_sfun_registry.obj
 0003:00000428       $SG25469                   000000018001d428     Fuel_Pump_V3_1_20201113_20KHz_sfun_registry.obj
 0003:00000430       $SG25470                   000000018001d430     Fuel_Pump_V3_1_20201113_20KHz_sfun_registry.obj
 0003:00000438       $SG25484                   000000018001d438     Fuel_Pump_V3_1_20201113_20KHz_sfun_registry.obj
 0003:00000448       $SG25674                   000000018001d448     Fuel_Pump_V3_1_20201113_20KHz_sfun_registry.obj
 0003:00000488       $SG25675                   000000018001d488     Fuel_Pump_V3_1_20201113_20KHz_sfun_registry.obj
 0003:00000490       $SG25680                   000000018001d490     Fuel_Pump_V3_1_20201113_20KHz_sfun_registry.obj
 0003:000004d8       $SG25681                   000000018001d4d8     Fuel_Pump_V3_1_20201113_20KHz_sfun_registry.obj
 0003:000004e0       $SG25682                   000000018001d4e0     Fuel_Pump_V3_1_20201113_20KHz_sfun_registry.obj
 0003:000004e8       $SG25684                   000000018001d4e8     Fuel_Pump_V3_1_20201113_20KHz_sfun_registry.obj
 0003:000004f0       $SG25683                   000000018001d4f0     Fuel_Pump_V3_1_20201113_20KHz_sfun_registry.obj
 0003:00000544       $SG25685                   000000018001d544     Fuel_Pump_V3_1_20201113_20KHz_sfun_registry.obj
 0003:00000550       $SG25707                   000000018001d550     Fuel_Pump_V3_1_20201113_20KHz_sfun_registry.obj
 0003:00000590       $SG25708                   000000018001d590     Fuel_Pump_V3_1_20201113_20KHz_sfun_registry.obj
 0003:00000598       $SG25709                   000000018001d598     Fuel_Pump_V3_1_20201113_20KHz_sfun_registry.obj
 0003:000005a0       $SG25713                   000000018001d5a0     Fuel_Pump_V3_1_20201113_20KHz_sfun_registry.obj
 0003:000005e8       $SG25714                   000000018001d5e8     Fuel_Pump_V3_1_20201113_20KHz_sfun_registry.obj
 0003:000005f0       $SG25715                   000000018001d5f0     Fuel_Pump_V3_1_20201113_20KHz_sfun_registry.obj
 0003:000005f8       $SG25717                   000000018001d5f8     Fuel_Pump_V3_1_20201113_20KHz_sfun_registry.obj
 0003:00000600       $SG25716                   000000018001d600     Fuel_Pump_V3_1_20201113_20KHz_sfun_registry.obj
 0003:00000654       $SG25718                   000000018001d654     Fuel_Pump_V3_1_20201113_20KHz_sfun_registry.obj
 0003:00000660       $SG25733                   000000018001d660     Fuel_Pump_V3_1_20201113_20KHz_sfun_registry.obj
 0003:000006b0       $SG25734                   000000018001d6b0     Fuel_Pump_V3_1_20201113_20KHz_sfun_registry.obj
 0003:000006b8       $SG25735                   000000018001d6b8     Fuel_Pump_V3_1_20201113_20KHz_sfun_registry.obj
 0003:000006c0       $SG25747                   000000018001d6c0     Fuel_Pump_V3_1_20201113_20KHz_sfun_registry.obj
 0003:00000720       $SG25748                   000000018001d720     Fuel_Pump_V3_1_20201113_20KHz_sfun_registry.obj
 0003:00000728       $SG25749                   000000018001d728     Fuel_Pump_V3_1_20201113_20KHz_sfun_registry.obj
 0003:00000730       $SG25761                   000000018001d730     Fuel_Pump_V3_1_20201113_20KHz_sfun_registry.obj
 0003:00000790       $SG25762                   000000018001d790     Fuel_Pump_V3_1_20201113_20KHz_sfun_registry.obj
 0003:00000798       $SG25763                   000000018001d798     Fuel_Pump_V3_1_20201113_20KHz_sfun_registry.obj
 0003:000007a0       $SG25978                   000000018001d7a0     Fuel_Pump_V3_1_20201113_20KHz_sfun_registry.obj
 0003:00000818       $SG26600                   000000018001d818     Fuel_Pump_V3_1_20201113_20KHz_sfun_registry.obj
 0003:00000830       $SG25981                   000000018001d830     Fuel_Pump_V3_1_20201113_20KHz_sfun_registry.obj
 0003:000008a4       $SG26667                   000000018001d8a4     Fuel_Pump_V3_1_20201113_20KHz_sfun_registry.obj
 0003:000008b0       $SG25986                   000000018001d8b0     Fuel_Pump_V3_1_20201113_20KHz_sfun_registry.obj
 0003:00000928       $SG26668                   000000018001d928     Fuel_Pump_V3_1_20201113_20KHz_sfun_registry.obj
 0003:00000930       $SG25994                   000000018001d930     Fuel_Pump_V3_1_20201113_20KHz_sfun_registry.obj
 0003:000009a0       $SG26269                   000000018001d9a0     Fuel_Pump_V3_1_20201113_20KHz_sfun_registry.obj
 0003:00000a18       $SG26669                   000000018001da18     Fuel_Pump_V3_1_20201113_20KHz_sfun_registry.obj
 0003:00000a20       $SG26274                   000000018001da20     Fuel_Pump_V3_1_20201113_20KHz_sfun_registry.obj
 0003:00000a98       $SG26675                   000000018001da98     Fuel_Pump_V3_1_20201113_20KHz_sfun_registry.obj
 0003:00000aa0       $SG26612                   000000018001daa0     Fuel_Pump_V3_1_20201113_20KHz_sfun_registry.obj
 0003:00000b18       $SG26678                   000000018001db18     Fuel_Pump_V3_1_20201113_20KHz_sfun_registry.obj
 0003:00000b20       $SG26670                   000000018001db20     Fuel_Pump_V3_1_20201113_20KHz_sfun_registry.obj
 0003:00000b98       $SG26681                   000000018001db98     Fuel_Pump_V3_1_20201113_20KHz_sfun_registry.obj
 0003:00000ba0       $SG26672                   000000018001dba0     Fuel_Pump_V3_1_20201113_20KHz_sfun_registry.obj
 0003:00000c20       $SG26682                   000000018001dc20     Fuel_Pump_V3_1_20201113_20KHz_sfun_registry.obj
 0003:00000ca0       $SG26683                   000000018001dca0     Fuel_Pump_V3_1_20201113_20KHz_sfun_registry.obj
 0003:00000cb0       $SG26685                   000000018001dcb0     Fuel_Pump_V3_1_20201113_20KHz_sfun_registry.obj
 0003:00000cbc       $SG26687                   000000018001dcbc     Fuel_Pump_V3_1_20201113_20KHz_sfun_registry.obj
 0003:00000cc4       $SG26689                   000000018001dcc4     Fuel_Pump_V3_1_20201113_20KHz_sfun_registry.obj
 0003:00000cd0       $SG26691                   000000018001dcd0     Fuel_Pump_V3_1_20201113_20KHz_sfun_registry.obj
 0003:00000ce0       $SG26696                   000000018001dce0     Fuel_Pump_V3_1_20201113_20KHz_sfun_registry.obj
 0003:00000dc8       $SG26801                   000000018001ddc8     Fuel_Pump_V3_1_20201113_20KHz_sfun_registry.obj
 0003:00000df8       $SG26802                   000000018001ddf8     Fuel_Pump_V3_1_20201113_20KHz_sfun_registry.obj
 0003:00000e00       $SG26803                   000000018001de00     Fuel_Pump_V3_1_20201113_20KHz_sfun_registry.obj
 0003:00000e08       $SG26805                   000000018001de08     Fuel_Pump_V3_1_20201113_20KHz_sfun_registry.obj
 0003:00000e40       $SG26806                   000000018001de40     Fuel_Pump_V3_1_20201113_20KHz_sfun_registry.obj
 0003:00000e48       $SG26807                   000000018001de48     Fuel_Pump_V3_1_20201113_20KHz_sfun_registry.obj
 0003:00000e50       $SG26810                   000000018001de50     Fuel_Pump_V3_1_20201113_20KHz_sfun_registry.obj
 0003:00000e88       $SG26811                   000000018001de88     Fuel_Pump_V3_1_20201113_20KHz_sfun_registry.obj
 0003:00000e90       $SG26812                   000000018001de90     Fuel_Pump_V3_1_20201113_20KHz_sfun_registry.obj
 0003:00000e98       $SG26814                   000000018001de98     Fuel_Pump_V3_1_20201113_20KHz_sfun_registry.obj
 0003:00000ed0       $SG26815                   000000018001ded0     Fuel_Pump_V3_1_20201113_20KHz_sfun_registry.obj
 0003:00000ed8       $SG26816                   000000018001ded8     Fuel_Pump_V3_1_20201113_20KHz_sfun_registry.obj
 0003:00000ee0       $SG26818                   000000018001dee0     Fuel_Pump_V3_1_20201113_20KHz_sfun_registry.obj
 0003:00000f18       $SG26819                   000000018001df18     Fuel_Pump_V3_1_20201113_20KHz_sfun_registry.obj
 0003:00000f20       $SG26820                   000000018001df20     Fuel_Pump_V3_1_20201113_20KHz_sfun_registry.obj
 0003:00000f28       $SG26823                   000000018001df28     Fuel_Pump_V3_1_20201113_20KHz_sfun_registry.obj
 0003:00000f30       $SG26825                   000000018001df30     Fuel_Pump_V3_1_20201113_20KHz_sfun_registry.obj
 0003:00000f48       $SG26826                   000000018001df48     Fuel_Pump_V3_1_20201113_20KHz_sfun_registry.obj
 0003:00000f80       $SG26827                   000000018001df80     Fuel_Pump_V3_1_20201113_20KHz_sfun_registry.obj
 0003:00000f88       $SG26828                   000000018001df88     Fuel_Pump_V3_1_20201113_20KHz_sfun_registry.obj
 0003:00000f90       $SG26988                   000000018001df90     Fuel_Pump_V3_1_20201113_20KHz_sfun_registry.obj
 0003:00000fb0       $SG26989                   000000018001dfb0     Fuel_Pump_V3_1_20201113_20KHz_sfun_registry.obj
 0003:00001040       $SG26993                   000000018001e040     Fuel_Pump_V3_1_20201113_20KHz_sfun_registry.obj
 0003:00001058       $SG26998                   000000018001e058     Fuel_Pump_V3_1_20201113_20KHz_sfun_registry.obj
 0003:00001070       $SG26994                   000000018001e070     Fuel_Pump_V3_1_20201113_20KHz_sfun_registry.obj
 0003:00001100       $SG26999                   000000018001e100     Fuel_Pump_V3_1_20201113_20KHz_sfun_registry.obj
 0003:00001190       $SG27003                   000000018001e190     Fuel_Pump_V3_1_20201113_20KHz_sfun_registry.obj
 0003:000011b0       $SG27004                   000000018001e1b0     Fuel_Pump_V3_1_20201113_20KHz_sfun_registry.obj
 0003:00001240       $SG27008                   000000018001e240     Fuel_Pump_V3_1_20201113_20KHz_sfun_registry.obj
 0003:00001260       $SG27009                   000000018001e260     Fuel_Pump_V3_1_20201113_20KHz_sfun_registry.obj
 0003:000012f0       $SG27013                   000000018001e2f0     Fuel_Pump_V3_1_20201113_20KHz_sfun_registry.obj
 0003:00001310       $SG27014                   000000018001e310     Fuel_Pump_V3_1_20201113_20KHz_sfun_registry.obj
 0003:000013a0       $SG27018                   000000018001e3a0     Fuel_Pump_V3_1_20201113_20KHz_sfun_registry.obj
 0003:000013c8       $SG27023                   000000018001e3c8     Fuel_Pump_V3_1_20201113_20KHz_sfun_registry.obj
 0003:000013f0       $SG27019                   000000018001e3f0     Fuel_Pump_V3_1_20201113_20KHz_sfun_registry.obj
 0003:00001480       $SG27024                   000000018001e480     Fuel_Pump_V3_1_20201113_20KHz_sfun_registry.obj
 0003:00001510       $SG27028                   000000018001e510     Fuel_Pump_V3_1_20201113_20KHz_sfun_registry.obj
 0003:00001530       $SG27029                   000000018001e530     Fuel_Pump_V3_1_20201113_20KHz_sfun_registry.obj
 0003:000015c0       $SG27033                   000000018001e5c0     Fuel_Pump_V3_1_20201113_20KHz_sfun_registry.obj
 0003:000015e0       $SG27034                   000000018001e5e0     Fuel_Pump_V3_1_20201113_20KHz_sfun_registry.obj
 0003:00001670       $SG27038                   000000018001e670     Fuel_Pump_V3_1_20201113_20KHz_sfun_registry.obj
 0003:00001688       $SG27074                   000000018001e688     Fuel_Pump_V3_1_20201113_20KHz_sfun_registry.obj
 0003:000016a0       $SG27039                   000000018001e6a0     Fuel_Pump_V3_1_20201113_20KHz_sfun_registry.obj
 0003:00001730       $SG27043                   000000018001e730     Fuel_Pump_V3_1_20201113_20KHz_sfun_registry.obj
 0003:00001750       $SG27044                   000000018001e750     Fuel_Pump_V3_1_20201113_20KHz_sfun_registry.obj
 0003:000017e0       $SG27048                   000000018001e7e0     Fuel_Pump_V3_1_20201113_20KHz_sfun_registry.obj
 0003:00001800       $SG27049                   000000018001e800     Fuel_Pump_V3_1_20201113_20KHz_sfun_registry.obj
 0003:00001890       $SG27053                   000000018001e890     Fuel_Pump_V3_1_20201113_20KHz_sfun_registry.obj
 0003:000018b0       $SG27054                   000000018001e8b0     Fuel_Pump_V3_1_20201113_20KHz_sfun_registry.obj
 0003:00001940       $SG27058                   000000018001e940     Fuel_Pump_V3_1_20201113_20KHz_sfun_registry.obj
 0003:00001960       $SG27059                   000000018001e960     Fuel_Pump_V3_1_20201113_20KHz_sfun_registry.obj
 0003:000019f0       $SG27063                   000000018001e9f0     Fuel_Pump_V3_1_20201113_20KHz_sfun_registry.obj
 0003:00001a10       $SG27064                   000000018001ea10     Fuel_Pump_V3_1_20201113_20KHz_sfun_registry.obj
 0003:00001aa0       $SG27068                   000000018001eaa0     Fuel_Pump_V3_1_20201113_20KHz_sfun_registry.obj
 0003:00001ac0       $SG27069                   000000018001eac0     Fuel_Pump_V3_1_20201113_20KHz_sfun_registry.obj
 0003:00001b50       $SG27075                   000000018001eb50     Fuel_Pump_V3_1_20201113_20KHz_sfun_registry.obj
 0003:00001be0       $SG27080                   000000018001ebe0     Fuel_Pump_V3_1_20201113_20KHz_sfun_registry.obj
 0003:00001c70       $SG27084                   000000018001ec70     Fuel_Pump_V3_1_20201113_20KHz_sfun_registry.obj
 0003:00001c88       $SG27104                   000000018001ec88     Fuel_Pump_V3_1_20201113_20KHz_sfun_registry.obj
 0003:00001ca0       $SG27085                   000000018001eca0     Fuel_Pump_V3_1_20201113_20KHz_sfun_registry.obj
 0003:00001d30       $SG27089                   000000018001ed30     Fuel_Pump_V3_1_20201113_20KHz_sfun_registry.obj
 0003:00001d40       $SG27090                   000000018001ed40     Fuel_Pump_V3_1_20201113_20KHz_sfun_registry.obj
 0003:00001dd0       $SG27094                   000000018001edd0     Fuel_Pump_V3_1_20201113_20KHz_sfun_registry.obj
 0003:00001de0       $SG27095                   000000018001ede0     Fuel_Pump_V3_1_20201113_20KHz_sfun_registry.obj
 0003:00001e70       $SG27099                   000000018001ee70     Fuel_Pump_V3_1_20201113_20KHz_sfun_registry.obj
 0003:00001e80       $SG27100                   000000018001ee80     Fuel_Pump_V3_1_20201113_20KHz_sfun_registry.obj
 0003:00001f10       $SG27105                   000000018001ef10     Fuel_Pump_V3_1_20201113_20KHz_sfun_registry.obj
 0003:00001fa0       $SG27109                   000000018001efa0     Fuel_Pump_V3_1_20201113_20KHz_sfun_registry.obj
 0003:00001fb8       $SG27114                   000000018001efb8     Fuel_Pump_V3_1_20201113_20KHz_sfun_registry.obj
 0003:00001fc8       $SG27186                   000000018001efc8     Fuel_Pump_V3_1_20201113_20KHz_sfun_registry.obj
 0003:00001fe0       $SG27110                   000000018001efe0     Fuel_Pump_V3_1_20201113_20KHz_sfun_registry.obj
 0003:00002070       $SG27115                   000000018001f070     Fuel_Pump_V3_1_20201113_20KHz_sfun_registry.obj
 0003:00002100       $SG27123                   000000018001f100     Fuel_Pump_V3_1_20201113_20KHz_sfun_registry.obj
 0003:00002110       $SG27124                   000000018001f110     Fuel_Pump_V3_1_20201113_20KHz_sfun_registry.obj
 0003:000021a0       $SG27128                   000000018001f1a0     Fuel_Pump_V3_1_20201113_20KHz_sfun_registry.obj
 0003:000021b0       $SG27129                   000000018001f1b0     Fuel_Pump_V3_1_20201113_20KHz_sfun_registry.obj
 0003:00002240       $SG27133                   000000018001f240     Fuel_Pump_V3_1_20201113_20KHz_sfun_registry.obj
 0003:00002250       $SG27134                   000000018001f250     Fuel_Pump_V3_1_20201113_20KHz_sfun_registry.obj
 0003:000022e0       $SG27139                   000000018001f2e0     Fuel_Pump_V3_1_20201113_20KHz_sfun_registry.obj
 0003:000022f0       $SG27140                   000000018001f2f0     Fuel_Pump_V3_1_20201113_20KHz_sfun_registry.obj
 0003:00002380       $SG27144                   000000018001f380     Fuel_Pump_V3_1_20201113_20KHz_sfun_registry.obj
 0003:00002400       $SG27174                   000000018001f400     Fuel_Pump_V3_1_20201113_20KHz_sfun_registry.obj
 0003:00002518       $SG27196                   000000018001f518     Fuel_Pump_V3_1_20201113_20KHz_sfun_registry.obj
 0003:00002528       $SG27208                   000000018001f528     Fuel_Pump_V3_1_20201113_20KHz_sfun_registry.obj
 0003:00002538       $SG27218                   000000018001f538     Fuel_Pump_V3_1_20201113_20KHz_sfun_registry.obj
 0003:00002548       $SG27230                   000000018001f548     Fuel_Pump_V3_1_20201113_20KHz_sfun_registry.obj
 0003:00002558       $SG27240                   000000018001f558     Fuel_Pump_V3_1_20201113_20KHz_sfun_registry.obj
 0003:00002568       $SG27250                   000000018001f568     Fuel_Pump_V3_1_20201113_20KHz_sfun_registry.obj
 0003:00002588       $SG25095                   000000018001f588     canblocks_extras_sfun:canblocks_extras_sfun.obj
 0003:000025a0       $SG25100                   000000018001f5a0     canblocks_extras_sfun:canblocks_extras_sfun.obj
 0003:000025a8       $SG25103                   000000018001f5a8     canblocks_extras_sfun:canblocks_extras_sfun.obj
 0003:000025c0       $SG25139                   000000018001f5c0     canblocks_extras_sfun:canblocks_extras_sfun.obj
 0003:000025e0       $SG25142                   000000018001f5e0     canblocks_extras_sfun:canblocks_extras_sfun.obj
 0003:000025f8       $SG25171                   000000018001f5f8     canblocks_extras_sfun:canblocks_extras_sfun.obj
 0003:00002618       $SG25174                   000000018001f618     canblocks_extras_sfun:canblocks_extras_sfun.obj
 0003:00002630       $SG25203                   000000018001f630     canblocks_extras_sfun:canblocks_extras_sfun.obj
 0003:00002648       $SG25206                   000000018001f648     canblocks_extras_sfun:canblocks_extras_sfun.obj
 0003:00002660       $SG25236                   000000018001f660     canblocks_extras_sfun:canblocks_extras_sfun.obj
 0003:00002678       $SG25239                   000000018001f678     canblocks_extras_sfun:canblocks_extras_sfun.obj
 0003:00002690       $SG25268                   000000018001f690     canblocks_extras_sfun:canblocks_extras_sfun.obj
 0003:000026b0       $SG25271                   000000018001f6b0     canblocks_extras_sfun:canblocks_extras_sfun.obj
 0003:000026c8       $SG25297                   000000018001f6c8     canblocks_extras_sfun:canblocks_extras_sfun.obj
 0003:000026e8       $SG25298                   000000018001f6e8     canblocks_extras_sfun:canblocks_extras_sfun.obj
 0003:00002700       $SG25315                   000000018001f700     canblocks_extras_sfun:c28_canblocks_extras.obj
 0003:00002718       $SG25316                   000000018001f718     canblocks_extras_sfun:c28_canblocks_extras.obj
 0003:0000272c       $SG25376                   000000018001f72c     canblocks_extras_sfun:c28_canblocks_extras.obj
 0003:00002730       $SG25317                   000000018001f730     canblocks_extras_sfun:c28_canblocks_extras.obj
 0003:00002740       $SG25318                   000000018001f740     canblocks_extras_sfun:c28_canblocks_extras.obj
 0003:00002750       $SG25319                   000000018001f750     canblocks_extras_sfun:c28_canblocks_extras.obj
 0003:00002760       $SG25320                   000000018001f760     canblocks_extras_sfun:c28_canblocks_extras.obj
 0003:00002770       $SG25321                   000000018001f770     canblocks_extras_sfun:c28_canblocks_extras.obj
 0003:00002784       $SG25377                   000000018001f784     canblocks_extras_sfun:c28_canblocks_extras.obj
 0003:00002788       $SG25322                   000000018001f788     canblocks_extras_sfun:c28_canblocks_extras.obj
 0003:0000279c       $SG25378                   000000018001f79c     canblocks_extras_sfun:c28_canblocks_extras.obj
 0003:000027a0       $SG25323                   000000018001f7a0     canblocks_extras_sfun:c28_canblocks_extras.obj
 0003:000027b4       $SG26338                   000000018001f7b4     canblocks_extras_sfun:c28_canblocks_extras.obj
 0003:000027c0       $SG25324                   000000018001f7c0     canblocks_extras_sfun:c28_canblocks_extras.obj
 0003:000027d8       $SG25325                   000000018001f7d8     canblocks_extras_sfun:c28_canblocks_extras.obj
 0003:000027f0       $SG25326                   000000018001f7f0     canblocks_extras_sfun:c28_canblocks_extras.obj
 0003:00002808       $SG25327                   000000018001f808     canblocks_extras_sfun:c28_canblocks_extras.obj
 0003:00002820       $SG25328                   000000018001f820     canblocks_extras_sfun:c28_canblocks_extras.obj
 0003:00002830       $SG25335                   000000018001f830     canblocks_extras_sfun:c28_canblocks_extras.obj
 0003:00002840       $SG25385                   000000018001f840     canblocks_extras_sfun:c28_canblocks_extras.obj
 0003:00002850       $SG25386                   000000018001f850     canblocks_extras_sfun:c28_canblocks_extras.obj
 0003:00002870       $SG25387                   000000018001f870     canblocks_extras_sfun:c28_canblocks_extras.obj
 0003:00002888       $SG25388                   000000018001f888     canblocks_extras_sfun:c28_canblocks_extras.obj
 0003:000028a8       $SG26194                   000000018001f8a8     canblocks_extras_sfun:c28_canblocks_extras.obj
 0003:000028b8       $SG26340                   000000018001f8b8     canblocks_extras_sfun:c28_canblocks_extras.obj
 0003:000028c0       $SG26342                   000000018001f8c0     canblocks_extras_sfun:c28_canblocks_extras.obj
 0003:000028c8       $SG26344                   000000018001f8c8     canblocks_extras_sfun:c28_canblocks_extras.obj
 0003:000028d0       $SG26346                   000000018001f8d0     canblocks_extras_sfun:c28_canblocks_extras.obj
 0003:000028d8       $SG26348                   000000018001f8d8     canblocks_extras_sfun:c28_canblocks_extras.obj
 0003:000028e0       $SG26350                   000000018001f8e0     canblocks_extras_sfun:c28_canblocks_extras.obj
 0003:000028e8       $SG26352                   000000018001f8e8     canblocks_extras_sfun:c28_canblocks_extras.obj
 0003:000028f0       $SG26354                   000000018001f8f0     canblocks_extras_sfun:c28_canblocks_extras.obj
 0003:000028f8       $SG26356                   000000018001f8f8     canblocks_extras_sfun:c28_canblocks_extras.obj
 0003:00002900       $SG26358                   000000018001f900     canblocks_extras_sfun:c28_canblocks_extras.obj
 0003:00002908       $SG26360                   000000018001f908     canblocks_extras_sfun:c28_canblocks_extras.obj
 0003:00002910       $SG26362                   000000018001f910     canblocks_extras_sfun:c28_canblocks_extras.obj
 0003:00002918       $SG26364                   000000018001f918     canblocks_extras_sfun:c28_canblocks_extras.obj
 0003:00002920       $SG26366                   000000018001f920     canblocks_extras_sfun:c28_canblocks_extras.obj
 0003:00002928       $SG26368                   000000018001f928     canblocks_extras_sfun:c28_canblocks_extras.obj
 0003:00002930       $SG26370                   000000018001f930     canblocks_extras_sfun:c28_canblocks_extras.obj
 0003:00002938       $SG26372                   000000018001f938     canblocks_extras_sfun:c28_canblocks_extras.obj
 0003:00002940       $SG26374                   000000018001f940     canblocks_extras_sfun:c28_canblocks_extras.obj
 0003:00002948       $SG26376                   000000018001f948     canblocks_extras_sfun:c28_canblocks_extras.obj
 0003:00002950       $SG26378                   000000018001f950     canblocks_extras_sfun:c28_canblocks_extras.obj
 0003:00002958       $SG26380                   000000018001f958     canblocks_extras_sfun:c28_canblocks_extras.obj
 0003:00002960       $SG26382                   000000018001f960     canblocks_extras_sfun:c28_canblocks_extras.obj
 0003:00002968       $SG26384                   000000018001f968     canblocks_extras_sfun:c28_canblocks_extras.obj
 0003:00002970       $SG26386                   000000018001f970     canblocks_extras_sfun:c28_canblocks_extras.obj
 0003:00002978       $SG26388                   000000018001f978     canblocks_extras_sfun:c28_canblocks_extras.obj
 0003:00002980       $SG26390                   000000018001f980     canblocks_extras_sfun:c28_canblocks_extras.obj
 0003:00002988       $SG26578                   000000018001f988     canblocks_extras_sfun:c28_canblocks_extras.obj
 0003:00002998       $SG26580                   000000018001f998     canblocks_extras_sfun:c28_canblocks_extras.obj
 0003:000029a8       $SG26582                   000000018001f9a8     canblocks_extras_sfun:c28_canblocks_extras.obj
 0003:000029c0       $SG26584                   000000018001f9c0     canblocks_extras_sfun:c28_canblocks_extras.obj
 0003:000029d8       $SG26586                   000000018001f9d8     canblocks_extras_sfun:c28_canblocks_extras.obj
 0003:000029ec       $SG26587                   000000018001f9ec     canblocks_extras_sfun:c28_canblocks_extras.obj
 0003:000029f8       $SG26588                   000000018001f9f8     canblocks_extras_sfun:c28_canblocks_extras.obj
 0003:00002a08       $SG26604                   000000018001fa08     canblocks_extras_sfun:c28_canblocks_extras.obj
 0003:00002a18       $SG26606                   000000018001fa18     canblocks_extras_sfun:c28_canblocks_extras.obj
 0003:00002a20       $SG26607                   000000018001fa20     canblocks_extras_sfun:c28_canblocks_extras.obj
 0003:00002b30       $SG26692                   000000018001fb30     canblocks_extras_sfun:c28_canblocks_extras.obj
 0003:00002b80       $SG26694                   000000018001fb80     canblocks_extras_sfun:c28_canblocks_extras.obj
 0003:00002bd0       $SG26696                   000000018001fbd0     canblocks_extras_sfun:c28_canblocks_extras.obj
 0003:00002c20       $SG26698                   000000018001fc20     canblocks_extras_sfun:c28_canblocks_extras.obj
 0003:00002c70       $SG26700                   000000018001fc70     canblocks_extras_sfun:c28_canblocks_extras.obj
 0003:00002cc0       $SG26702                   000000018001fcc0     canblocks_extras_sfun:c28_canblocks_extras.obj
 0003:00002d10       $SG26704                   000000018001fd10     canblocks_extras_sfun:c28_canblocks_extras.obj
 0003:00002d60       $SG26706                   000000018001fd60     canblocks_extras_sfun:c28_canblocks_extras.obj
 0003:00002db0       $SG26708                   000000018001fdb0     canblocks_extras_sfun:c28_canblocks_extras.obj
 0003:00002e00       $SG26710                   000000018001fe00     canblocks_extras_sfun:c28_canblocks_extras.obj
 0003:00002e50       $SG26712                   000000018001fe50     canblocks_extras_sfun:c28_canblocks_extras.obj
 0003:00002ea0       $SG26714                   000000018001fea0     canblocks_extras_sfun:c28_canblocks_extras.obj
 0003:00002ef0       $SG26716                   000000018001fef0     canblocks_extras_sfun:c28_canblocks_extras.obj
 0003:00002f40       $SG26718                   000000018001ff40     canblocks_extras_sfun:c28_canblocks_extras.obj
 0003:00002f90       $SG26720                   000000018001ff90     canblocks_extras_sfun:c28_canblocks_extras.obj
 0003:00002fe0       $SG26722                   000000018001ffe0     canblocks_extras_sfun:c28_canblocks_extras.obj
 0003:00003030       $SG26724                   0000000180020030     canblocks_extras_sfun:c28_canblocks_extras.obj
 0003:00003080       $SG26726                   0000000180020080     canblocks_extras_sfun:c28_canblocks_extras.obj
 0003:000030d0       $SG26728                   00000001800200d0     canblocks_extras_sfun:c28_canblocks_extras.obj
 0003:00003120       $SG26730                   0000000180020120     canblocks_extras_sfun:c28_canblocks_extras.obj
 0003:00003170       $SG26732                   0000000180020170     canblocks_extras_sfun:c28_canblocks_extras.obj
 0003:000031c0       $SG26734                   00000001800201c0     canblocks_extras_sfun:c28_canblocks_extras.obj
 0003:00003210       $SG26736                   0000000180020210     canblocks_extras_sfun:c28_canblocks_extras.obj
 0003:00003260       $SG26738                   0000000180020260     canblocks_extras_sfun:c28_canblocks_extras.obj
 0003:000032b0       $SG26740                   00000001800202b0     canblocks_extras_sfun:c28_canblocks_extras.obj
 0003:00003300       $SG26742                   0000000180020300     canblocks_extras_sfun:c28_canblocks_extras.obj
 0003:00003350       $SG26744                   0000000180020350     canblocks_extras_sfun:c28_canblocks_extras.obj
 0003:00003368       $SG26757                   0000000180020368     canblocks_extras_sfun:c28_canblocks_extras.obj
 0003:00003378       $SG26758                   0000000180020378     canblocks_extras_sfun:c28_canblocks_extras.obj
 0003:00003390       $SG26781                   0000000180020390     canblocks_extras_sfun:c28_canblocks_extras.obj
 0003:000033c0       $SG26796                   00000001800203c0     canblocks_extras_sfun:c28_canblocks_extras.obj
 0003:00003470       sRtwOptimizationInfoStruct 0000000180020470     Fuel_Pump_V3_1_20201113_20KHz_sfun.obj
 0003:00003478       sOptimizationInfoFlags     0000000180020478     Fuel_Pump_V3_1_20201113_20KHz_sfun.obj
 0003:0000347c       sfGlobalMdlStartCallCounts 000000018002047c     Fuel_Pump_V3_1_20201113_20KHz_sfun_registry.obj
 0003:00003480       $SG26663                   0000000180020480     Fuel_Pump_V3_1_20201113_20KHz_sfun_registry.obj
 0003:00003488       sRtwOptimizationInfoStruct 0000000180020488     canblocks_extras_sfun:canblocks_extras_sfun.obj
 0003:00003490       sOptimizationInfoFlags     0000000180020490     canblocks_extras_sfun:canblocks_extras_sfun.obj
 0003:000034a0       _sfTime_                   00000001800204a0     canblocks_extras_sfun:c28_canblocks_extras.obj
 0003:000034a8       $SG26589                   00000001800204a8     canblocks_extras_sfun:c28_canblocks_extras.obj
 0003:000034a9       $SG26590                   00000001800204a9     canblocks_extras_sfun:c28_canblocks_extras.obj
 0003:000034aa       $SG26591                   00000001800204aa     canblocks_extras_sfun:c28_canblocks_extras.obj
 0003:000034ab       $SG26746                   00000001800204ab     canblocks_extras_sfun:c28_canblocks_extras.obj
 0003:000034b0       ?newstr@?1??sf_c28_canblocks_extras_get_post_codegen_info@@9@9 00000001800204b0     canblocks_extras_sfun:c28_canblocks_extras.obj
 0003:00003c70       GS_ExceptionRecord         0000000180020c70     MSVCRT:gs_report.obj
 0003:00003d10       GS_ContextRecord           0000000180020d10     MSVCRT:gs_report.obj
 0003:000041e0       ?__proc_attached@@3HA      00000001800211e0     MSVCRT:dll_dllmain.obj
 0003:00004220       ?is_initialized_as_dll@@3_NA 0000000180021220     MSVCRT:utility.obj
 0003:00004221       ?module_local_atexit_table_initialized@@3_NA 0000000180021221     MSVCRT:utility.obj
 0003:00004228       ?module_local_atexit_table@@3U_onexit_table_t@@A 0000000180021228     MSVCRT:utility.obj
 0003:00004240       ?module_local_at_quick_exit_table@@3U_onexit_table_t@@A 0000000180021240     MSVCRT:utility.obj
 0004:00000000       $pdata$load_Fuel_Pump_V3_1_20201113_20KHz_optimization_info 0000000180022000     Fuel_Pump_V3_1_20201113_20KHz_sfun.obj
 0004:0000000c       $pdata$unload_Fuel_Pump_V3_1_20201113_20KHz_optimization_info 000000018002200c     Fuel_Pump_V3_1_20201113_20KHz_sfun.obj
 0004:00000018       $pdata$sf_Fuel_Pump_V3_1_20201113_20KHz_process_check_sum_call 0000000180022018     Fuel_Pump_V3_1_20201113_20KHz_sfun.obj
 0004:00000024       $pdata$sf_Fuel_Pump_V3_1_20201113_20KHz_get_eml_resolved_functions_info 0000000180022024     Fuel_Pump_V3_1_20201113_20KHz_sfun.obj
 0004:00000030       $pdata$sf_Fuel_Pump_V3_1_20201113_20KHz_third_party_uses_info 0000000180022030     Fuel_Pump_V3_1_20201113_20KHz_sfun.obj
 0004:0000003c       $pdata$sf_Fuel_Pump_V3_1_20201113_20KHz_jit_fallback_info 000000018002203c     Fuel_Pump_V3_1_20201113_20KHz_sfun.obj
 0004:00000048       $pdata$sf_Fuel_Pump_V3_1_20201113_20KHz_get_post_codegen_info 0000000180022048     Fuel_Pump_V3_1_20201113_20KHz_sfun.obj
 0004:00000054       $pdata$sf_Fuel_Pump_V3_1_20201113_20KHz_updateBuildInfo_args_info 0000000180022054     Fuel_Pump_V3_1_20201113_20KHz_sfun.obj
 0004:00000600       $pdata$_vsnprintf_l        0000000180022600     Fuel_Pump_V3_1_20201113_20KHz_sfun_registry.obj
 0004:0000060c       $pdata$_vsprintf_l         000000018002260c     Fuel_Pump_V3_1_20201113_20KHz_sfun_registry.obj
 0004:00000618       $pdata$sprintf             0000000180022618     Fuel_Pump_V3_1_20201113_20KHz_sfun_registry.obj
 0004:00000060       $pdata$mexFunction         0000000180022060     Fuel_Pump_V3_1_20201113_20KHz_sfun_registry.obj
 0004:0000006c       $pdata$_ssSetInputPortDirectFeedThroughFcn 000000018002206c     Fuel_Pump_V3_1_20201113_20KHz_sfun_registry.obj
 0004:00000078       $pdata$_ssSetRWorkValueFcn 0000000180022078     Fuel_Pump_V3_1_20201113_20KHz_sfun_registry.obj
 0004:00000084       $pdata$_ssGetRWorkValueFcn 0000000180022084     Fuel_Pump_V3_1_20201113_20KHz_sfun_registry.obj
 0004:00000090       $pdata$_ssSetIWorkValueFcn 0000000180022090     Fuel_Pump_V3_1_20201113_20KHz_sfun_registry.obj
 0004:0000009c       $pdata$_ssGetIWorkValueFcn 000000018002209c     Fuel_Pump_V3_1_20201113_20KHz_sfun_registry.obj
 0004:000000a8       $pdata$_ssSetPWorkValueFcn 00000001800220a8     Fuel_Pump_V3_1_20201113_20KHz_sfun_registry.obj
 0004:000000b4       $pdata$_ssGetPWorkValueFcn 00000001800220b4     Fuel_Pump_V3_1_20201113_20KHz_sfun_registry.obj
 0004:000000c0       $pdata$_ssGetInputPortSignalFcn 00000001800220c0     Fuel_Pump_V3_1_20201113_20KHz_sfun_registry.obj
 0004:000000cc       $pdata$_ssGetInputPortBufferDstPortFcn 00000001800220cc     Fuel_Pump_V3_1_20201113_20KHz_sfun_registry.obj
 0004:000000d8       $pdata$_ssGetInputPortSignalPtrsFcn 00000001800220d8     Fuel_Pump_V3_1_20201113_20KHz_sfun_registry.obj
 0004:000000e4       $pdata$ssGetParameterTuningCompliance 00000001800220e4     Fuel_Pump_V3_1_20201113_20KHz_sfun_registry.obj
 0004:000000f0       $pdata$ssGetDTypeIdFromMxArray 00000001800220f0     Fuel_Pump_V3_1_20201113_20KHz_sfun_registry.obj
 0004:000000fc       $pdata$ssWriteRTWMx2dMatParam 00000001800220fc     Fuel_Pump_V3_1_20201113_20KHz_sfun_registry.obj
 0004:00000108       $pdata$ssWriteRTWMxVectParam 0000000180022108     Fuel_Pump_V3_1_20201113_20KHz_sfun_registry.obj
 0004:00000114       $pdata$ssWriteRTWParameters 0000000180022114     Fuel_Pump_V3_1_20201113_20KHz_sfun_registry.obj
 0004:00000120       $pdata$ssWriteRTWParamSettings 0000000180022120     Fuel_Pump_V3_1_20201113_20KHz_sfun_registry.obj
 0004:0000012c       $pdata$ssWriteRTWStr       000000018002212c     Fuel_Pump_V3_1_20201113_20KHz_sfun_registry.obj
 0004:00000138       $pdata$ssWriteRTWWorkVect  0000000180022138     Fuel_Pump_V3_1_20201113_20KHz_sfun_registry.obj
 0004:00000144       $pdata$ssWarning           0000000180022144     Fuel_Pump_V3_1_20201113_20KHz_sfun_registry.obj
 0004:00000150       $pdata$ssWriteRTWNameValuePair 0000000180022150     Fuel_Pump_V3_1_20201113_20KHz_sfun_registry.obj
 0004:0000015c       $pdata$_ssSetInputPortMatrixDimensions 000000018002215c     Fuel_Pump_V3_1_20201113_20KHz_sfun_registry.obj
 0004:00000168       $pdata$_ssSetOutputPortMatrixDimensions 0000000180022168     Fuel_Pump_V3_1_20201113_20KHz_sfun_registry.obj
 0004:00000174       $pdata$_ssSetInputPortVectorDimension 0000000180022174     Fuel_Pump_V3_1_20201113_20KHz_sfun_registry.obj
 0004:00000180       $pdata$_ssSetOutputPortVectorDimension 0000000180022180     Fuel_Pump_V3_1_20201113_20KHz_sfun_registry.obj
 0004:0000018c       $pdata$ssIsRunTimeParamTunable 000000018002218c     Fuel_Pump_V3_1_20201113_20KHz_sfun_registry.obj
 0004:00000198       $pdata$ssGetSFuncBlockHandle 0000000180022198     Fuel_Pump_V3_1_20201113_20KHz_sfun_registry.obj
 0004:000001a4       $pdata$_ssGetCurrentInputPortWidth 00000001800221a4     Fuel_Pump_V3_1_20201113_20KHz_sfun_registry.obj
 0004:000001b0       $pdata$_ssGetCurrentOutputPortWidth 00000001800221b0     Fuel_Pump_V3_1_20201113_20KHz_sfun_registry.obj
 0004:000001bc       $pdata$_ssGetCallSystemNumFcnCallDestinations 00000001800221bc     Fuel_Pump_V3_1_20201113_20KHz_sfun_registry.obj
 0004:000001c8       $pdata$ssGetIsZeroCrossControlDisabled 00000001800221c8     Fuel_Pump_V3_1_20201113_20KHz_sfun_registry.obj
 0004:000001d4       $pdata$ssSetIsInputPortUsedForContZcSignal 00000001800221d4     Fuel_Pump_V3_1_20201113_20KHz_sfun_registry.obj
 0004:000001e0       $pdata$ssSetZcSignalIsZcElementDisc 00000001800221e0     Fuel_Pump_V3_1_20201113_20KHz_sfun_registry.obj
 0004:000001ec       $pdata$ssSetZcSignalName   00000001800221ec     Fuel_Pump_V3_1_20201113_20KHz_sfun_registry.obj
 0004:000001f8       $pdata$ssSetZcSignalWidth  00000001800221f8     Fuel_Pump_V3_1_20201113_20KHz_sfun_registry.obj
 0004:00000204       $pdata$ssSetZcSignalZcEventType 0000000180022204     Fuel_Pump_V3_1_20201113_20KHz_sfun_registry.obj
 0004:00000210       $pdata$ssSetZcSignalType   0000000180022210     Fuel_Pump_V3_1_20201113_20KHz_sfun_registry.obj
 0004:0000021c       $pdata$ssSetZcSignalZcTol  000000018002221c     Fuel_Pump_V3_1_20201113_20KHz_sfun_registry.obj
 0004:00000228       $pdata$ssSetZcSignalNeedsEventNotification 0000000180022228     Fuel_Pump_V3_1_20201113_20KHz_sfun_registry.obj
 0004:00000234       $pdata$ssCreateAndAddZcSignalInfo 0000000180022234     Fuel_Pump_V3_1_20201113_20KHz_sfun_registry.obj
 0004:00000240       $pdata$ssCloneAndAddZcSignalInfo 0000000180022240     Fuel_Pump_V3_1_20201113_20KHz_sfun_registry.obj
 0004:0000024c       $pdata$ssGetNumZcSignals   000000018002224c     Fuel_Pump_V3_1_20201113_20KHz_sfun_registry.obj
 0004:00000258       $pdata$ssGetZcSignalVector 0000000180022258     Fuel_Pump_V3_1_20201113_20KHz_sfun_registry.obj
 0004:00000264       $pdata$ssGetZcSignalName   0000000180022264     Fuel_Pump_V3_1_20201113_20KHz_sfun_registry.obj
 0004:00000270       $pdata$ssGetZcSignalWidth  0000000180022270     Fuel_Pump_V3_1_20201113_20KHz_sfun_registry.obj
 0004:0000027c       $pdata$ssGetZcSignalZcEventType 000000018002227c     Fuel_Pump_V3_1_20201113_20KHz_sfun_registry.obj
 0004:00000288       $pdata$ssGetZcSignalZcEvents 0000000180022288     Fuel_Pump_V3_1_20201113_20KHz_sfun_registry.obj
 0004:00000294       $pdata$ssGetZcSignalType   0000000180022294     Fuel_Pump_V3_1_20201113_20KHz_sfun_registry.obj
 0004:000002a0       $pdata$ssGetZcSignalZcTol  00000001800222a0     Fuel_Pump_V3_1_20201113_20KHz_sfun_registry.obj
 0004:000002ac       $pdata$ssGetZcSignalNeedsEventNotification 00000001800222ac     Fuel_Pump_V3_1_20201113_20KHz_sfun_registry.obj
 0004:000002b8       $pdata$ssGetZcSignalIsZcElementDisc 00000001800222b8     Fuel_Pump_V3_1_20201113_20KHz_sfun_registry.obj
 0004:000002c4       $pdata$ssGetIsInputPortElementContinuous 00000001800222c4     Fuel_Pump_V3_1_20201113_20KHz_sfun_registry.obj
 0004:000002d0       $pdata$_ssGetAbsTol        00000001800222d0     Fuel_Pump_V3_1_20201113_20KHz_sfun_registry.obj
 0004:000002dc       $pdata$_ssSetInputPortReusableFcn 00000001800222dc     Fuel_Pump_V3_1_20201113_20KHz_sfun_registry.obj
 0004:000002e8       $pdata$_ssSetOutputPortReusableFcn 00000001800222e8     Fuel_Pump_V3_1_20201113_20KHz_sfun_registry.obj
 0004:000002f4       $pdata$_ssSetSymbolicDimsSupport 00000001800222f4     Fuel_Pump_V3_1_20201113_20KHz_sfun_registry.obj
 0004:00000300       $pdata$_ssRegisterSymbolicDimsExpr 0000000180022300     Fuel_Pump_V3_1_20201113_20KHz_sfun_registry.obj
 0004:0000030c       $pdata$_ssRegisterSymbolicDims 000000018002230c     Fuel_Pump_V3_1_20201113_20KHz_sfun_registry.obj
 0004:00000318       $pdata$_ssRegisterSymbolicDimsString 0000000180022318     Fuel_Pump_V3_1_20201113_20KHz_sfun_registry.obj
 0004:00000324       $pdata$_ssRegisterSymbolicDimsIntValue 0000000180022324     Fuel_Pump_V3_1_20201113_20KHz_sfun_registry.obj
 0004:00000330       $pdata$_ssRegisterSymbolicDimsPlus 0000000180022330     Fuel_Pump_V3_1_20201113_20KHz_sfun_registry.obj
 0004:0000033c       $pdata$_ssRegisterSymbolicDimsMinus 000000018002233c     Fuel_Pump_V3_1_20201113_20KHz_sfun_registry.obj
 0004:00000348       $pdata$_ssRegisterSymbolicDimsMultiply 0000000180022348     Fuel_Pump_V3_1_20201113_20KHz_sfun_registry.obj
 0004:00000354       $pdata$_ssRegisterSymbolicDimsDivide 0000000180022354     Fuel_Pump_V3_1_20201113_20KHz_sfun_registry.obj
 0004:00000360       $pdata$_ssGetNumSymbolicDims 0000000180022360     Fuel_Pump_V3_1_20201113_20KHz_sfun_registry.obj
 0004:0000036c       $pdata$_ssGetSymbolicDim   000000018002236c     Fuel_Pump_V3_1_20201113_20KHz_sfun_registry.obj
 0004:00000378       $pdata$_ssSetInputPortSymbolicDimsId 0000000180022378     Fuel_Pump_V3_1_20201113_20KHz_sfun_registry.obj
 0004:00000384       $pdata$_ssGetCompInputPortSymbolicDimsId 0000000180022384     Fuel_Pump_V3_1_20201113_20KHz_sfun_registry.obj
 0004:00000390       $pdata$_ssSetCompInputPortSymbolicDimsId 0000000180022390     Fuel_Pump_V3_1_20201113_20KHz_sfun_registry.obj
 0004:0000039c       $pdata$_ssSetOutputPortSymbolicDimsId 000000018002239c     Fuel_Pump_V3_1_20201113_20KHz_sfun_registry.obj
 0004:000003a8       $pdata$_ssGetCompOutputPortSymbolicDimsId 00000001800223a8     Fuel_Pump_V3_1_20201113_20KHz_sfun_registry.obj
 0004:000003b4       $pdata$_ssSetCompOutputPortSymbolicDimsId 00000001800223b4     Fuel_Pump_V3_1_20201113_20KHz_sfun_registry.obj
 0004:000003c0       $pdata$_ssSetCompDWorkSymbolicDimsId 00000001800223c0     Fuel_Pump_V3_1_20201113_20KHz_sfun_registry.obj
 0004:000003cc       $pdata$sf_process_check_sum_call 00000001800223cc     Fuel_Pump_V3_1_20201113_20KHz_sfun_registry.obj
 0004:000003d8       $pdata$sf_process_get_third_party_uses_info_call 00000001800223d8     Fuel_Pump_V3_1_20201113_20KHz_sfun_registry.obj
 0004:000003e4       $pdata$sf_process_get_jit_fallback_info_call 00000001800223e4     Fuel_Pump_V3_1_20201113_20KHz_sfun_registry.obj
 0004:000003f0       $pdata$sf_process_get_post_codegen_info_call 00000001800223f0     Fuel_Pump_V3_1_20201113_20KHz_sfun_registry.obj
 0004:000003fc       $pdata$sf_process_get_updateBuildInfo_args_info_call 00000001800223fc     Fuel_Pump_V3_1_20201113_20KHz_sfun_registry.obj
 0004:00000408       $pdata$sf_process_get_eml_resolved_functions_info_call 0000000180022408     Fuel_Pump_V3_1_20201113_20KHz_sfun_registry.obj
 0004:00000414       $pdata$sf_mex_unlock_call  0000000180022414     Fuel_Pump_V3_1_20201113_20KHz_sfun_registry.obj
 0004:00000420       $pdata$ProcessMexSfunctionCmdLineCall 0000000180022420     Fuel_Pump_V3_1_20201113_20KHz_sfun_registry.obj
 0004:0000042c       $pdata$sf_machine_global_initializer_called 000000018002242c     Fuel_Pump_V3_1_20201113_20KHz_sfun_registry.obj
 0004:00000438       $pdata$sf_machine_global_method_dispatcher 0000000180022438     Fuel_Pump_V3_1_20201113_20KHz_sfun_registry.obj
 0004:00000444       $pdata$sf_machine_global_terminator 0000000180022444     Fuel_Pump_V3_1_20201113_20KHz_sfun_registry.obj
 0004:00000450       $pdata$sf_register_machine_exported_symbols 0000000180022450     Fuel_Pump_V3_1_20201113_20KHz_sfun_registry.obj
 0004:0000045c       $pdata$sf_machine_global_initializer 000000018002245c     Fuel_Pump_V3_1_20201113_20KHz_sfun_registry.obj
 0004:00000468       $pdata$mdlGetSimState      0000000180022468     Fuel_Pump_V3_1_20201113_20KHz_sfun_registry.obj
 0004:00000474       $pdata$mdlSetSimState      0000000180022474     Fuel_Pump_V3_1_20201113_20KHz_sfun_registry.obj
 0004:00000480       $pdata$mdlSetWorkWidths    0000000180022480     Fuel_Pump_V3_1_20201113_20KHz_sfun_registry.obj
 0004:0000048c       $pdata$mdlProcessParameters 000000018002248c     Fuel_Pump_V3_1_20201113_20KHz_sfun_registry.obj
 0004:00000498       $pdata$mdl_start_processing 0000000180022498     Fuel_Pump_V3_1_20201113_20KHz_sfun_registry.obj
 0004:000004a4       $pdata$mdl_terminate_processing 00000001800224a4     Fuel_Pump_V3_1_20201113_20KHz_sfun_registry.obj
 0004:000004b0       $pdata$mdlStart            00000001800224b0     Fuel_Pump_V3_1_20201113_20KHz_sfun_registry.obj
 0004:000004bc       $pdata$mdlTerminate        00000001800224bc     Fuel_Pump_V3_1_20201113_20KHz_sfun_registry.obj
 0004:000004c8       $pdata$mdlInitializeSizes  00000001800224c8     Fuel_Pump_V3_1_20201113_20KHz_sfun_registry.obj
 0004:000004d4       $pdata$mdlInitializeSampleTimes 00000001800224d4     Fuel_Pump_V3_1_20201113_20KHz_sfun_registry.obj
 0004:000004e0       $pdata$mdl_outputs_continuous_legacy 00000001800224e0     Fuel_Pump_V3_1_20201113_20KHz_sfun_registry.obj
 0004:000004ec       $pdata$mdl_outputs_processing 00000001800224ec     Fuel_Pump_V3_1_20201113_20KHz_sfun_registry.obj
 0004:000004f8       $pdata$mdl_zeroCrossings_processing 00000001800224f8     Fuel_Pump_V3_1_20201113_20KHz_sfun_registry.obj
 0004:00000504       $pdata$mdlZeroCrossings    0000000180022504     Fuel_Pump_V3_1_20201113_20KHz_sfun_registry.obj
 0004:00000510       $pdata$mdl_derivatives_processing 0000000180022510     Fuel_Pump_V3_1_20201113_20KHz_sfun_registry.obj
 0004:0000051c       $pdata$mdlDerivatives      000000018002251c     Fuel_Pump_V3_1_20201113_20KHz_sfun_registry.obj
 0004:00000528       $pdata$mdl_initialize_conditions_processing 0000000180022528     Fuel_Pump_V3_1_20201113_20KHz_sfun_registry.obj
 0004:00000534       $pdata$mdlInitializeConditions 0000000180022534     Fuel_Pump_V3_1_20201113_20KHz_sfun_registry.obj
 0004:00000540       $pdata$mdl_ext_mode_exec_processing 0000000180022540     Fuel_Pump_V3_1_20201113_20KHz_sfun_registry.obj
 0004:0000054c       $pdata$mdlExtModeExec      000000018002254c     Fuel_Pump_V3_1_20201113_20KHz_sfun_registry.obj
 0004:00000558       $pdata$mdlRTW              0000000180022558     Fuel_Pump_V3_1_20201113_20KHz_sfun_registry.obj
 0004:00000564       $pdata$mdl_enable_processing 0000000180022564     Fuel_Pump_V3_1_20201113_20KHz_sfun_registry.obj
 0004:00000570       $pdata$mdlEnable           0000000180022570     Fuel_Pump_V3_1_20201113_20KHz_sfun_registry.obj
 0004:0000057c       $pdata$mdl_disable_processing 000000018002257c     Fuel_Pump_V3_1_20201113_20KHz_sfun_registry.obj
 0004:00000588       $pdata$mdlDisable          0000000180022588     Fuel_Pump_V3_1_20201113_20KHz_sfun_registry.obj
 0004:00000594       $pdata$mdlOutputs          0000000180022594     Fuel_Pump_V3_1_20201113_20KHz_sfun_registry.obj
 0004:000005a0       $pdata$mdl_update_processing 00000001800225a0     Fuel_Pump_V3_1_20201113_20KHz_sfun_registry.obj
 0004:000005ac       $pdata$mdlUpdate           00000001800225ac     Fuel_Pump_V3_1_20201113_20KHz_sfun_registry.obj
 0004:000005b8       $pdata$ProcessMexSfunctionEveryCall 00000001800225b8     Fuel_Pump_V3_1_20201113_20KHz_sfun_registry.obj
 0004:000005c4       $pdata$_RegNumInputPortsCB 00000001800225c4     Fuel_Pump_V3_1_20201113_20KHz_sfun_registry.obj
 0004:000005d0       $pdata$_RegNumOutputPortsCB 00000001800225d0     Fuel_Pump_V3_1_20201113_20KHz_sfun_registry.obj
 0004:000005dc       $pdata$_CreateSimStruct    00000001800225dc     Fuel_Pump_V3_1_20201113_20KHz_sfun_registry.obj
 0004:000005e8       $pdata$_ProcessMexSfunctionCmdLineCall 00000001800225e8     Fuel_Pump_V3_1_20201113_20KHz_sfun_registry.obj
 0004:000005f4       $pdata$ReportIndexOutOfBoundsError 00000001800225f4     Fuel_Pump_V3_1_20201113_20KHz_sfun_registry.obj
 0004:00000624       $pdata$load_canblocks_extras_optimization_info 0000000180022624     canblocks_extras_sfun:canblocks_extras_sfun.obj
 0004:00000630       $pdata$unload_canblocks_extras_optimization_info 0000000180022630     canblocks_extras_sfun:canblocks_extras_sfun.obj
 0004:0000063c       $pdata$sf_canblocks_extras_method_dispatcher 000000018002263c     canblocks_extras_sfun:canblocks_extras_sfun.obj
 0004:00000648       $pdata$sf_canblocks_extras_process_check_sum_call 0000000180022648     canblocks_extras_sfun:canblocks_extras_sfun.obj
 0004:00000654       $pdata$sf_canblocks_extras_get_eml_resolved_functions_info 0000000180022654     canblocks_extras_sfun:canblocks_extras_sfun.obj
 0004:00000660       $pdata$sf_canblocks_extras_third_party_uses_info 0000000180022660     canblocks_extras_sfun:canblocks_extras_sfun.obj
 0004:0000066c       $pdata$sf_canblocks_extras_jit_fallback_info 000000018002266c     canblocks_extras_sfun:canblocks_extras_sfun.obj
 0004:00000678       $pdata$sf_canblocks_extras_get_post_codegen_info 0000000180022678     canblocks_extras_sfun:canblocks_extras_sfun.obj
 0004:00000684       $pdata$sf_canblocks_extras_updateBuildInfo_args_info 0000000180022684     canblocks_extras_sfun:canblocks_extras_sfun.obj
 0004:00000690       $pdata$sf_c28_canblocks_extras_get_eml_resolved_functions_info 0000000180022690     canblocks_extras_sfun:c28_canblocks_extras.obj
 0004:0000069c       $pdata$sf_c28_canblocks_extras_get_check_sum 000000018002269c     canblocks_extras_sfun:c28_canblocks_extras.obj
 0004:000006a8       $pdata$c28_canblocks_extras_method_dispatcher 00000001800226a8     canblocks_extras_sfun:c28_canblocks_extras.obj
 0004:000006b4       $pdata$initialize_c28_canblocks_extras 00000001800226b4     canblocks_extras_sfun:c28_canblocks_extras.obj
 0004:000006c0       $pdata$initialize_params_c28_canblocks_extras 00000001800226c0     canblocks_extras_sfun:c28_canblocks_extras.obj
 0004:000006cc       $pdata$enable_c28_canblocks_extras 00000001800226cc     canblocks_extras_sfun:c28_canblocks_extras.obj
 0004:000006d8       $pdata$disable_c28_canblocks_extras 00000001800226d8     canblocks_extras_sfun:c28_canblocks_extras.obj
 0004:000006e4       $pdata$c28_update_jit_animation_state_c28_canblocks_extras 00000001800226e4     canblocks_extras_sfun:c28_canblocks_extras.obj
 0004:000006f0       $pdata$c28_do_animation_call_c28_canblocks_extras 00000001800226f0     canblocks_extras_sfun:c28_canblocks_extras.obj
 0004:000006fc       $pdata$get_sim_state_c28_canblocks_extras 00000001800226fc     canblocks_extras_sfun:c28_canblocks_extras.obj
 0004:00000708       $pdata$set_sim_state_c28_canblocks_extras 0000000180022708     canblocks_extras_sfun:c28_canblocks_extras.obj
 0004:00000714       $pdata$finalize_c28_canblocks_extras 0000000180022714     canblocks_extras_sfun:c28_canblocks_extras.obj
 0004:00000720       $pdata$sf_gateway_c28_canblocks_extras 0000000180022720     canblocks_extras_sfun:c28_canblocks_extras.obj
 0004:0000072c       $pdata$mdl_start_c28_canblocks_extras 000000018002272c     canblocks_extras_sfun:c28_canblocks_extras.obj
 0004:00000738       $pdata$c28_Connected       0000000180022738     canblocks_extras_sfun:c28_canblocks_extras.obj
 0004:00000744       $pdata$c28_tx_dto          0000000180022744     canblocks_extras_sfun:c28_canblocks_extras.obj
 0004:00000750       $pdata$c28_emlrt_marshallIn 0000000180022750     canblocks_extras_sfun:c28_canblocks_extras.obj
 0004:0000075c       $pdata$c28_b_emlrt_marshallIn 000000018002275c     canblocks_extras_sfun:c28_canblocks_extras.obj
 0004:00000768       $pdata$c28_c_emlrt_marshallIn 0000000180022768     canblocks_extras_sfun:c28_canblocks_extras.obj
 0004:00000774       $pdata$c28_d_emlrt_marshallIn 0000000180022774     canblocks_extras_sfun:c28_canblocks_extras.obj
 0004:00000780       $pdata$c28_chart_data_browse_helper 0000000180022780     canblocks_extras_sfun:c28_canblocks_extras.obj
 0004:0000078c       $pdata$c28_slcc_cov_call_setSlave_Version_G1WZrK4kHQSfLP1BLKd6ID_by_sim 000000018002278c     canblocks_extras_sfun:c28_canblocks_extras.obj
 0004:00000798       $pdata$c28_slcc_cov_call_setStation_Address_G1WZrK4kHQSfLP1BLKd6ID_by_s 0000000180022798     canblocks_extras_sfun:c28_canblocks_extras.obj
 0004:000007a4       $pdata$c28_slcc_cov_call_setCurrent_State_G1WZrK4kHQSfLP1BLKd6ID_by_sim 00000001800227a4     canblocks_extras_sfun:c28_canblocks_extras.obj
 0004:000007b0       $pdata$c28_slcc_cov_call_c_reset_all_DAQ_lists_G1WZrK4kHQSfLP1BLKd6ID_b 00000001800227b0     canblocks_extras_sfun:c28_canblocks_extras.obj
 0004:000007bc       $pdata$c28_slcc_cov_call_getStation_Address_G1WZrK4kHQSfLP1BLKd6ID_by_s 00000001800227bc     canblocks_extras_sfun:c28_canblocks_extras.obj
 0004:000007c8       $pdata$c28_slcc_cov_call_setHandled_G1WZrK4kHQSfLP1BLKd6ID_by_simstruct 00000001800227c8     canblocks_extras_sfun:c28_canblocks_extras.obj
 0004:000007d4       $pdata$c28_slcc_cov_call_setMaster_Version_G1WZrK4kHQSfLP1BLKd6ID_by_si 00000001800227d4     canblocks_extras_sfun:c28_canblocks_extras.obj
 0004:000007e0       $pdata$c28_slcc_cov_call_getMTAPtr_G1WZrK4kHQSfLP1BLKd6ID_by_simstruct 00000001800227e0     canblocks_extras_sfun:c28_canblocks_extras.obj
 0004:000007ec       $pdata$c28_slcc_cov_call_c_write_uint8s_G1WZrK4kHQSfLP1BLKd6ID_by_simst 00000001800227ec     canblocks_extras_sfun:c28_canblocks_extras.obj
 0004:000007f8       $pdata$c28_slcc_cov_call_c_set_element_pointer_G1WZrK4kHQSfLP1BLKd6ID_b 00000001800227f8     canblocks_extras_sfun:c28_canblocks_extras.obj
 0004:00000804       $pdata$c28_slcc_cov_call_c_start_stop_all_G1WZrK4kHQSfLP1BLKd6ID_by_sim 0000000180022804     canblocks_extras_sfun:c28_canblocks_extras.obj
 0004:00000810       $pdata$c28_slcc_cov_call_c_start_stop_G1WZrK4kHQSfLP1BLKd6ID_by_simstru 0000000180022810     canblocks_extras_sfun:c28_canblocks_extras.obj
 0004:0000081c       $pdata$c28_slcc_cov_call_setS_Status_G1WZrK4kHQSfLP1BLKd6ID_by_simstruc 000000018002281c     canblocks_extras_sfun:c28_canblocks_extras.obj
 0004:00000828       $pdata$c28_slcc_cov_call_c_write_daq_G1WZrK4kHQSfLP1BLKd6ID_by_simstruc 0000000180022828     canblocks_extras_sfun:c28_canblocks_extras.obj
 0004:00000834       $pdata$c28_slcc_cov_call_setData_G1WZrK4kHQSfLP1BLKd6ID_by_simstruct 0000000180022834     canblocks_extras_sfun:c28_canblocks_extras.obj
 0004:00000840       $pdata$c28_slcc_cov_call_getSlave_Version_G1WZrK4kHQSfLP1BLKd6ID_by_sim 0000000180022840     canblocks_extras_sfun:c28_canblocks_extras.obj
 0004:0000084c       $pdata$c28_slcc_cov_call_getDataPtr_G1WZrK4kHQSfLP1BLKd6ID_by_simstruct 000000018002284c     canblocks_extras_sfun:c28_canblocks_extras.obj
 0004:00000858       $pdata$c28_slcc_cov_call_c_read_uint8s_G1WZrK4kHQSfLP1BLKd6ID_by_simstr 0000000180022858     canblocks_extras_sfun:c28_canblocks_extras.obj
 0004:00000864       $pdata$c28_slcc_cov_call_c_init_daq_list_G1WZrK4kHQSfLP1BLKd6ID_by_sims 0000000180022864     canblocks_extras_sfun:c28_canblocks_extras.obj
 0004:00000870       $pdata$c28_slcc_cov_call_getS_Status_G1WZrK4kHQSfLP1BLKd6ID_by_simstruc 0000000180022870     canblocks_extras_sfun:c28_canblocks_extras.obj
 0004:0000087c       $pdata$c28__u8_u16_        000000018002287c     canblocks_extras_sfun:c28_canblocks_extras.obj
 0004:00000888       $pdata$init_simulink_io_address 0000000180022888     canblocks_extras_sfun:c28_canblocks_extras.obj
 0004:00000894       $pdata$sf_c28_canblocks_extras_third_party_uses_info 0000000180022894     canblocks_extras_sfun:c28_canblocks_extras.obj
 0004:000008a0       $pdata$sf_c28_canblocks_extras_jit_fallback_info 00000001800228a0     canblocks_extras_sfun:c28_canblocks_extras.obj
 0004:000008ac       $pdata$sf_c28_canblocks_extras_updateBuildInfo_args_info 00000001800228ac     canblocks_extras_sfun:c28_canblocks_extras.obj
 0004:000008b8       $pdata$sf_get_sim_state_info_c28_canblocks_extras 00000001800228b8     canblocks_extras_sfun:c28_canblocks_extras.obj
 0004:000008c4       $pdata$sf_opaque_initialize_c28_canblocks_extras 00000001800228c4     canblocks_extras_sfun:c28_canblocks_extras.obj
 0004:000008d0       $pdata$sf_opaque_enable_c28_canblocks_extras 00000001800228d0     canblocks_extras_sfun:c28_canblocks_extras.obj
 0004:000008dc       $pdata$sf_opaque_disable_c28_canblocks_extras 00000001800228dc     canblocks_extras_sfun:c28_canblocks_extras.obj
 0004:000008e8       $pdata$sf_opaque_gateway_c28_canblocks_extras 00000001800228e8     canblocks_extras_sfun:c28_canblocks_extras.obj
 0004:000008f4       $pdata$sf_opaque_get_sim_state_c28_canblocks_extras 00000001800228f4     canblocks_extras_sfun:c28_canblocks_extras.obj
 0004:00000900       $pdata$sf_opaque_set_sim_state_c28_canblocks_extras 0000000180022900     canblocks_extras_sfun:c28_canblocks_extras.obj
 0004:0000090c       $pdata$sf_opaque_terminate_c28_canblocks_extras 000000018002290c     canblocks_extras_sfun:c28_canblocks_extras.obj
 0004:00000918       $pdata$mdlProcessParameters_c28_canblocks_extras 0000000180022918     canblocks_extras_sfun:c28_canblocks_extras.obj
 0004:00000924       $pdata$sf_c28_canblocks_extras_get_post_codegen_info 0000000180022924     canblocks_extras_sfun:c28_canblocks_extras.obj
 0004:00000930       $pdata$mdlSetWorkWidths_c28_canblocks_extras 0000000180022930     canblocks_extras_sfun:c28_canblocks_extras.obj
 0004:0000093c       $pdata$mdlRTW_c28_canblocks_extras 000000018002293c     canblocks_extras_sfun:c28_canblocks_extras.obj
 0004:00000948       $pdata$mdlStart_c28_canblocks_extras 0000000180022948     canblocks_extras_sfun:c28_canblocks_extras.obj
 0004:00000978       $pdata$__report_securityfailure 0000000180022978     MSVCRT:gs_report.obj
 0004:00000984       $pdata$__report_securityfailureEx 0000000180022984     MSVCRT:gs_report.obj
 0004:0000096c       $pdata$__report_rangecheckfailure 000000018002296c     MSVCRT:gs_report.obj
 0004:00000960       $pdata$__report_gsfailure  0000000180022960     MSVCRT:gs_report.obj
 0004:00000990       $pdata$capture_current_context 0000000180022990     MSVCRT:gs_report.obj
 0004:0000099c       $pdata$capture_previous_context 000000018002299c     MSVCRT:gs_report.obj
 0004:00000954       $pdata$__raise_securityfailure 0000000180022954     MSVCRT:gs_report.obj
 0004:000009b4       $pdata$__GSHandlerCheckCommon 00000001800229b4     MSVCRT:gshandler.obj
 0004:000009a8       $pdata$__GSHandlerCheck    00000001800229a8     MSVCRT:gshandler.obj
 0004:000009d8       $pdata$?dllmain_crt_process_attach@@YAHQEAUHINSTANCE__@@QEAX@Z 00000001800229d8     MSVCRT:dll_dllmain.obj
 0004:00000b58       $pdata$?fin$0@?0??dllmain_crt_process_attach@@YAHQEAUHINSTANCE__@@QEAX@Z@4HA 0000000180022b58     MSVCRT:dll_dllmain.obj
 0004:000009e4       $pdata$?dllmain_crt_process_detach@@YAH_N@Z 00000001800229e4     MSVCRT:dll_dllmain.obj
 0004:00000b64       $pdata$?fin$0@?0??dllmain_crt_process_detach@@YAH_N@Z@4HA 0000000180022b64     MSVCRT:dll_dllmain.obj
 0004:00000b70       $pdata$?fin$1@?0??dllmain_crt_process_detach@@YAH_N@Z@4HA 0000000180022b70     MSVCRT:dll_dllmain.obj
 0004:000009cc       $pdata$?dllmain_crt_dispatch@@YAHQEAUHINSTANCE__@@KQEAX@Z 00000001800229cc     MSVCRT:dll_dllmain.obj
 0004:000009f0       $pdata$?dllmain_dispatch@@YAHQEAUHINSTANCE__@@KQEAX@Z 00000001800229f0     MSVCRT:dll_dllmain.obj
 0004:00000b7c       $pdata$?filt$0@?0??dllmain_dispatch@@YAHQEAUHINSTANCE__@@KQEAX@Z@4HA 0000000180022b7c     MSVCRT:dll_dllmain.obj
 0004:000009fc       $pdata$_DllMainCRTStartup  00000001800229fc     MSVCRT:dll_dllmain.obj
 0004:00000a14       $pdata$__security_init_cookie 0000000180022a14     MSVCRT:gs_support.obj
 0004:00000a08       $pdata$__get_entropy       0000000180022a08     MSVCRT:gs_support.obj
 0004:00000a20       $pdata$DllMain             0000000180022a20     MSVCRT:dll_dllmain_stub.obj
 0004:00000a2c       $pdata$__scrt_initialize_default_local_stdio_options 0000000180022a2c     MSVCRT:default_local_stdio_options.obj
 0004:00000aec       $pdata$atexit              0000000180022aec     MSVCRT:utility.obj
 0004:00000ae0       $pdata$_onexit             0000000180022ae0     MSVCRT:utility.obj
 0004:00000abc       $pdata$__scrt_is_nonwritable_in_current_image 0000000180022abc     MSVCRT:utility.obj
 0004:00000b88       $pdata$__scrt_is_nonwritable_in_current_image$filt$0 0000000180022b88     MSVCRT:utility.obj
 0004:00000a44       $pdata$__scrt_acquire_startup_lock 0000000180022a44     MSVCRT:utility.obj
 0004:00000ac8       $pdata$__scrt_release_startup_lock 0000000180022ac8     MSVCRT:utility.obj
 0004:00000aa4       $pdata$__scrt_initialize_crt 0000000180022aa4     MSVCRT:utility.obj
 0004:00000ad4       $pdata$__scrt_uninitialize_crt 0000000180022ad4     MSVCRT:utility.obj
 0004:00000ab0       $pdata$__scrt_initialize_onexit_tables 0000000180022ab0     MSVCRT:utility.obj
 0004:00000a80       $pdata$__scrt_dllmain_exception_filter 0000000180022a80     MSVCRT:utility.obj
 0004:00000a5c       $pdata$__scrt_dllmain_before_initialize_c 0000000180022a5c     MSVCRT:utility.obj
 0004:00000a50       $pdata$__scrt_dllmain_after_initialize_c 0000000180022a50     MSVCRT:utility.obj
 0004:00000a8c       $pdata$__scrt_dllmain_uninitialize_c 0000000180022a8c     MSVCRT:utility.obj
 0004:00000a98       $pdata$__scrt_dllmain_uninitialize_critical 0000000180022a98     MSVCRT:utility.obj
 0004:00000a68       $pdata$__scrt_dllmain_crt_thread_attach 0000000180022a68     MSVCRT:utility.obj
 0004:00000a74       $pdata$__scrt_dllmain_crt_thread_detach 0000000180022a74     MSVCRT:utility.obj
 0004:00000a38       $pdata$?configure_argv@__scrt_narrow_argv_policy@@SAHXZ 0000000180022a38     MSVCRT:utility.obj
 0004:00000b04       $pdata$__scrt_get_show_window_mode 0000000180022b04     MSVCRT:utility_desktop.obj
 0004:00000b10       $pdata$__scrt_is_managed_app 0000000180022b10     MSVCRT:utility_desktop.obj
 0004:00000af8       $pdata$__scrt_fastfail     0000000180022af8     MSVCRT:utility_desktop.obj
 0004:00000b1c       $pdata$__scrt_unhandled_exception_filter 0000000180022b1c     MSVCRT:utility_desktop.obj
 0004:00000b28       $pdata$_RTC_Initialize     0000000180022b28     MSVCRT:initsect.obj
 0004:00000b34       $pdata$_RTC_Terminate      0000000180022b34     MSVCRT:initsect.obj
 0004:00000b40       $pdata$__isa_available_init 0000000180022b40     MSVCRT:cpu_disp.obj
